
Allocating common symbols
Common symbol       size              file

s_sDevicePDDesc     0x44              temp.elf
s_u16ActivityCounter
                    0x2               temp.elf
sBbcIdleBugTimer    0x10              temp.elf
bCheckChild         0x4               temp.elf
prHigherMlmeCallback
                    0x4               temp.elf
ba_redzone_size     0x4               temp.elf
pwrm_CPUContext     0x3c              temp.elf
au8Shadow           0x400             temp.elf
app_eDisplayState   0x4               temp.elf
s_sLogPDDesc        0x44              temp.elf
app_eCurrentSensor  0x4               temp.elf
zps_psNwk           0x4               temp.elf
ba_abi_level        0x4               temp.elf
psActiveMsgListHead
                    0x4               temp.elf
psFreeMsgListHead   0x4               temp.elf
eState              0x4               temp.elf

Discarded input sections

 .rom_workspace.os.o.s_u32SuspendIRQNesting
                0x00000000        0x0 temp.elf
 .rom_workspace.os.o.s_u8SuspendedIPL
                0x00000000        0x0 temp.elf
 .rom.OS_eGetCurrentTask
                0x00000000        0x0 temp.elf
 .rom.OS_eGetMessageStatus
                0x00000000        0x0 temp.elf
 .rom.OS_eSuspendOSInterrupts
                0x00000000        0x0 temp.elf
 .rom.OS_eResumeOSInterrupts
                0x00000000        0x0 temp.elf
 .rom.OS_eDisableAllInterrupts
                0x00000000        0x0 temp.elf
 .rom.OS_eEnableAllInterrupts
                0x00000000        0x0 temp.elf
 .rom.PDUM_eNPduAppendFooterNBO
                0x00000000        0x0 temp.elf
 .rom.PDUM_eNPduWriteToBuffer
                0x00000000        0x0 temp.elf
 .rom.pwrm_vRegisterPreSleepCallback
                0x00000000        0x0 temp.elf
 .rom.PWRM_vSetupDozeMonitor
                0x00000000        0x0 temp.elf
 .rom.PWRM_vResetDozeTimers
                0x00000000        0x0 temp.elf
 .rom.PWRM_u32GetDozeTime
                0x00000000        0x0 temp.elf
 .rom.PWRM_u32GetDozeElapsedTime
                0x00000000        0x0 temp.elf
 .rom.PWRM_eScheduleActivity
                0x00000000        0x0 temp.elf
 .rom.dbg_vAssertImpl
                0x00000000        0x0 temp.elf
 .bss           0x00000000        0x0 temp.elf
 .bss.3         0x00000000        0x0 temp.elf
 .bss.6         0x00000000        0x0 temp.elf
 .bss.9         0x00000000        0x0 temp.elf
 .bss.12        0x00000000        0x0 temp.elf
 .bss.15        0x00000000        0x0 temp.elf
 .bss.18        0x00000000        0x0 temp.elf
 .bss.21        0x00000000        0x0 temp.elf
 .bss.25        0x00000000        0x0 temp.elf
 .bss.29        0x00000000        0x0 temp.elf
 .bss.33        0x00000000        0x0 temp.elf
 .bss.37        0x00000000        0x0 temp.elf
 .bss.42        0x00000000        0x0 temp.elf
 .bss.47        0x00000000        0x0 temp.elf
 .bss.51        0x00000000        0x0 temp.elf
 .bss.56        0x00000000        0x0 temp.elf
 .bss.61        0x00000000        0x0 temp.elf
 .bss.66        0x00000000        0x0 temp.elf
 .bss.70        0x00000000        0x0 temp.elf
 .bss.75        0x00000000        0x0 temp.elf
 .bss.79        0x00000000        0x0 temp.elf
 .bss.82        0x00000000        0x0 temp.elf
 .bss.85        0x00000000        0x0 temp.elf
 .bss.89        0x00000000        0x0 temp.elf
 .bss.92        0x00000000        0x0 temp.elf
 .bss.96        0x00000000        0x0 temp.elf
 .bss.100       0x00000000        0x0 temp.elf
 .bss.104       0x00000000        0x0 temp.elf
 .bss.108       0x00000000        0x0 temp.elf
 .bss.111       0x00000000        0x0 temp.elf
 .bss.115       0x00000000        0x0 temp.elf
 .bss.120       0x00000000        0x0 temp.elf
 .bss.124       0x00000000        0x0 temp.elf
 .bss.128       0x00000000        0x0 temp.elf
 .bss.133       0x00000000        0x0 temp.elf
 .bss.138       0x00000000        0x0 temp.elf
 .bss.143       0x00000000        0x0 temp.elf
 .bss.148       0x00000000        0x0 temp.elf
 .bss.152       0x00000000        0x0 temp.elf
 .bss.157       0x00000000        0x0 temp.elf
 .bss.161       0x00000000        0x0 temp.elf
 .bss.165       0x00000000        0x0 temp.elf
 .bss.170       0x00000000        0x0 temp.elf
 .bss.175       0x00000000        0x0 temp.elf
 .bss.180       0x00000000        0x0 temp.elf
 .bss.185       0x00000000        0x0 temp.elf
 .bss.190       0x00000000        0x0 temp.elf
 .bss.195       0x00000000        0x0 temp.elf
 .bss.200       0x00000000        0x0 temp.elf
 .bss.205       0x00000000        0x0 temp.elf
 .bss.210       0x00000000        0x0 temp.elf
 .bss.215       0x00000000        0x0 temp.elf
 .bss.220       0x00000000        0x0 temp.elf
 .bss.225       0x00000000        0x0 temp.elf
 .bss.230       0x00000000        0x0 temp.elf
 .bss.235       0x00000000        0x0 temp.elf
 .bss.240       0x00000000        0x0 temp.elf
 .bss.245       0x00000000        0x0 temp.elf
 .bss.249       0x00000000        0x0 temp.elf
 .bss.254       0x00000000        0x0 temp.elf
 .bss.259       0x00000000        0x0 temp.elf
 .bss.264       0x00000000        0x0 temp.elf
 .bss.269       0x00000000        0x0 temp.elf
 .bss.274       0x00000000        0x0 temp.elf
 .bss.279       0x00000000        0x0 temp.elf
 .bss.284       0x00000000        0x0 temp.elf
 .bss.289       0x00000000        0x0 temp.elf
 .bss.294       0x00000000        0x0 temp.elf
 .bss.299       0x00000000        0x0 temp.elf
 .bss.303       0x00000000        0x0 temp.elf
 .bss.308       0x00000000        0x0 temp.elf
 .bss.313       0x00000000        0x0 temp.elf
 .bss.317       0x00000000        0x0 temp.elf
 .bss.322       0x00000000        0x0 temp.elf
 .bss.326       0x00000000        0x0 temp.elf
 .bss.329       0x00000000        0x0 temp.elf
 .bss.333       0x00000000        0x0 temp.elf
 .bss.337       0x00000000        0x0 temp.elf
 .bss.342       0x00000000        0x0 temp.elf
 .bss.346       0x00000000        0x0 temp.elf
 .bss.351       0x00000000        0x0 temp.elf
 .bss.355       0x00000000        0x0 temp.elf
 .bss.359       0x00000000        0x0 temp.elf
 .bss.363       0x00000000        0x0 temp.elf
 .bss.368       0x00000000        0x0 temp.elf
 .bss.373       0x00000000        0x0 temp.elf
 .bss.377       0x00000000        0x0 temp.elf
 .bss.381       0x00000000        0x0 temp.elf
 .bss.385       0x00000000        0x0 temp.elf
 .bss.389       0x00000000        0x0 temp.elf
 .bss.393       0x00000000        0x0 temp.elf
 .bss.399       0x00000000        0x0 temp.elf
 .bss.404       0x00000000        0x0 temp.elf
 .bss.408       0x00000000        0x0 temp.elf
 .bss.413       0x00000000        0x0 temp.elf
 .bss.417       0x00000000        0x0 temp.elf
 .bss.422       0x00000000        0x0 temp.elf
 .bss.426       0x00000000        0x0 temp.elf
 .bss.430       0x00000000        0x0 temp.elf
 .bss.434       0x00000000        0x0 temp.elf
 .bss.439       0x00000000        0x0 temp.elf
 .bss.443       0x00000000        0x0 temp.elf
 .bss.447       0x00000000        0x0 temp.elf
 .bss.451       0x00000000        0x0 temp.elf
 .bss.455       0x00000000        0x0 temp.elf
 .bss.459       0x00000000        0x0 temp.elf
 .bss.463       0x00000000        0x0 temp.elf
 .bss.467       0x00000000        0x0 temp.elf
 .bss.471       0x00000000        0x0 temp.elf
 .bss.475       0x00000000        0x0 temp.elf
 .bss.479       0x00000000        0x0 temp.elf
 .bss.483       0x00000000        0x0 temp.elf
 .bss.486       0x00000000        0x0 temp.elf
 .bss.491       0x00000000        0x0 temp.elf
 .bss.495       0x00000000        0x0 temp.elf
 .bss.500       0x00000000        0x0 temp.elf
 .bss.u32StoreBbcPttt
                0x00000000        0x0 temp.elf
 .bss.504       0x00000000        0x0 temp.elf
 .bss.509       0x00000000        0x0 temp.elf
 .bss.513       0x00000000        0x0 temp.elf
 .bss.517       0x00000000        0x0 temp.elf
 .bss.521       0x00000000        0x0 temp.elf
 .bss.526       0x00000000        0x0 temp.elf
 .bss.530       0x00000000        0x0 temp.elf
 .bss.534       0x00000000        0x0 temp.elf
 .bss.538       0x00000000        0x0 temp.elf
 .bss.543       0x00000000        0x0 temp.elf
 .bss.547       0x00000000        0x0 temp.elf
 .bss.551       0x00000000        0x0 temp.elf
 .bss.554       0x00000000        0x0 temp.elf
 .bss.557       0x00000000        0x0 temp.elf
 .bss.560       0x00000000        0x0 temp.elf
 .bss.563       0x00000000        0x0 temp.elf
 .bss.567       0x00000000        0x0 temp.elf
 .bss.572       0x00000000        0x0 temp.elf
 .bss.575       0x00000000        0x0 temp.elf
 .bss.581       0x00000000        0x0 temp.elf
 .bss.586       0x00000000        0x0 temp.elf
 .bss.591       0x00000000        0x0 temp.elf
 .bss.596       0x00000000        0x0 temp.elf
 .bss.601       0x00000000        0x0 temp.elf
 .data          0x00000000        0x0 temp.elf
 .data.2        0x00000000        0x0 temp.elf
 .data.5        0x00000000        0x0 temp.elf
 .data.8        0x00000000        0x0 temp.elf
 .data.11       0x00000000        0x0 temp.elf
 .data.14       0x00000000        0x0 temp.elf
 .data.17       0x00000000        0x0 temp.elf
 .data.20       0x00000000        0x0 temp.elf
 .data.24       0x00000000        0x0 temp.elf
 .data.28       0x00000000        0x0 temp.elf
 .data.32       0x00000000        0x0 temp.elf
 .data.36       0x00000000        0x0 temp.elf
 .data.41       0x00000000        0x0 temp.elf
 .data.46       0x00000000        0x0 temp.elf
 .data.50       0x00000000        0x0 temp.elf
 .data.55       0x00000000        0x0 temp.elf
 .data.60       0x00000000        0x0 temp.elf
 .data.65       0x00000000        0x0 temp.elf
 .data.69       0x00000000        0x0 temp.elf
 .data.74       0x00000000        0x0 temp.elf
 .data.78       0x00000000        0x0 temp.elf
 .data.81       0x00000000        0x0 temp.elf
 .data.84       0x00000000        0x0 temp.elf
 .data.88       0x00000000        0x0 temp.elf
 .data.91       0x00000000        0x0 temp.elf
 .data.95       0x00000000        0x0 temp.elf
 .data.99       0x00000000        0x0 temp.elf
 .data.103      0x00000000        0x0 temp.elf
 .data.107      0x00000000        0x0 temp.elf
 .data.110      0x00000000        0x0 temp.elf
 .data.114      0x00000000        0x0 temp.elf
 .data.119      0x00000000        0x0 temp.elf
 .data.123      0x00000000        0x0 temp.elf
 .data.127      0x00000000        0x0 temp.elf
 .data.132      0x00000000        0x0 temp.elf
 .data.137      0x00000000        0x0 temp.elf
 .data.142      0x00000000        0x0 temp.elf
 .data.147      0x00000000        0x0 temp.elf
 .data.151      0x00000000        0x0 temp.elf
 .data.156      0x00000000        0x0 temp.elf
 .data.160      0x00000000        0x0 temp.elf
 .data.164      0x00000000        0x0 temp.elf
 .data.169      0x00000000        0x0 temp.elf
 .data.174      0x00000000        0x0 temp.elf
 .data.179      0x00000000        0x0 temp.elf
 .data.184      0x00000000        0x0 temp.elf
 .data.189      0x00000000        0x0 temp.elf
 .data.194      0x00000000        0x0 temp.elf
 .data.199      0x00000000        0x0 temp.elf
 .data.204      0x00000000        0x0 temp.elf
 .data.209      0x00000000        0x0 temp.elf
 .data.214      0x00000000        0x0 temp.elf
 .data.219      0x00000000        0x0 temp.elf
 .data.224      0x00000000        0x0 temp.elf
 .data.229      0x00000000        0x0 temp.elf
 .data.234      0x00000000        0x0 temp.elf
 .data.239      0x00000000        0x0 temp.elf
 .data.244      0x00000000        0x0 temp.elf
 .data.248      0x00000000        0x0 temp.elf
 .data.253      0x00000000        0x0 temp.elf
 .data.258      0x00000000        0x0 temp.elf
 .data.263      0x00000000        0x0 temp.elf
 .data.268      0x00000000        0x0 temp.elf
 .data.273      0x00000000        0x0 temp.elf
 .data.278      0x00000000        0x0 temp.elf
 .data.283      0x00000000        0x0 temp.elf
 .data.288      0x00000000        0x0 temp.elf
 .data.293      0x00000000        0x0 temp.elf
 .data.298      0x00000000        0x0 temp.elf
 .data.302      0x00000000        0x0 temp.elf
 .data.307      0x00000000        0x0 temp.elf
 .data.312      0x00000000        0x0 temp.elf
 .data.316      0x00000000        0x0 temp.elf
 .data.321      0x00000000        0x0 temp.elf
 .data.325      0x00000000        0x0 temp.elf
 .data.328      0x00000000        0x0 temp.elf
 .data.332      0x00000000        0x0 temp.elf
 .data.336      0x00000000        0x0 temp.elf
 .data.341      0x00000000        0x0 temp.elf
 .data.345      0x00000000        0x0 temp.elf
 .data.350      0x00000000        0x0 temp.elf
 .data.354      0x00000000        0x0 temp.elf
 .data.358      0x00000000        0x0 temp.elf
 .data.362      0x00000000        0x0 temp.elf
 .data.367      0x00000000        0x0 temp.elf
 .data.372      0x00000000        0x0 temp.elf
 .data.376      0x00000000        0x0 temp.elf
 .data.380      0x00000000        0x0 temp.elf
 .data.384      0x00000000        0x0 temp.elf
 .data.388      0x00000000        0x0 temp.elf
 .data.392      0x00000000        0x0 temp.elf
 .data.398      0x00000000        0x0 temp.elf
 .data.403      0x00000000        0x0 temp.elf
 .data.407      0x00000000        0x0 temp.elf
 .data.412      0x00000000        0x0 temp.elf
 .data.416      0x00000000        0x0 temp.elf
 .data.421      0x00000000        0x0 temp.elf
 .data.425      0x00000000        0x0 temp.elf
 .data.429      0x00000000        0x0 temp.elf
 .data.433      0x00000000        0x0 temp.elf
 .data.438      0x00000000        0x0 temp.elf
 .data.442      0x00000000        0x0 temp.elf
 .data.446      0x00000000        0x0 temp.elf
 .data.450      0x00000000        0x0 temp.elf
 .data.454      0x00000000        0x0 temp.elf
 .data.458      0x00000000        0x0 temp.elf
 .data.462      0x00000000        0x0 temp.elf
 .data.466      0x00000000        0x0 temp.elf
 .data.470      0x00000000        0x0 temp.elf
 .data.474      0x00000000        0x0 temp.elf
 .data.478      0x00000000        0x0 temp.elf
 .data.482      0x00000000        0x0 temp.elf
 .data.485      0x00000000        0x0 temp.elf
 .data.490      0x00000000        0x0 temp.elf
 .data.494      0x00000000        0x0 temp.elf
 .data.499      0x00000000        0x0 temp.elf
 .data.503      0x00000000        0x0 temp.elf
 .data.508      0x00000000        0x0 temp.elf
 .data.512      0x00000000        0x0 temp.elf
 .data.516      0x00000000        0x0 temp.elf
 .data.520      0x00000000        0x0 temp.elf
 .data.525      0x00000000        0x0 temp.elf
 .data.529      0x00000000        0x0 temp.elf
 .data.533      0x00000000        0x0 temp.elf
 .data.537      0x00000000        0x0 temp.elf
 .data.542      0x00000000        0x0 temp.elf
 .data.546      0x00000000        0x0 temp.elf
 .data.550      0x00000000        0x0 temp.elf
 .data.553      0x00000000        0x0 temp.elf
 .data.556      0x00000000        0x0 temp.elf
 .data.559      0x00000000        0x0 temp.elf
 .data.562      0x00000000        0x0 temp.elf
 .data.566      0x00000000        0x0 temp.elf
 .data.571      0x00000000        0x0 temp.elf
 .data.574      0x00000000        0x0 temp.elf
 .data.580      0x00000000        0x0 temp.elf
 .data.585      0x00000000        0x0 temp.elf
 .data.590      0x00000000        0x0 temp.elf
 .data.595      0x00000000        0x0 temp.elf
 .data.600      0x00000000        0x0 temp.elf
 .rom.zps_u32NwkLibFromPayload
                0x00000000        0x0 temp.elf
 .text          0x00000000        0x0 temp.elf
 .text.OS_vRestart
                0x00000000        0x0 temp.elf
 .text.19       0x00000000        0x0 temp.elf
 .text.23       0x00000000        0x0 temp.elf
 .text.27       0x00000000        0x0 temp.elf
 .text.31       0x00000000        0x0 temp.elf
 .text.35       0x00000000        0x0 temp.elf
 .text.40       0x00000000        0x0 temp.elf
 .text.45       0x00000000        0x0 temp.elf
 .text.49       0x00000000        0x0 temp.elf
 .text.54       0x00000000        0x0 temp.elf
 .text.59       0x00000000        0x0 temp.elf
 .text.vStrlen  0x00000000        0x0 temp.elf
 .text.i16Serial_RxChar
                0x00000000        0x0 temp.elf
 .text.vSerialRxString
                0x00000000        0x0 temp.elf
 .text.vSerial_TxChar
                0x00000000        0x0 temp.elf
 .text.Rfid_Rawread
                0x00000000        0x0 temp.elf
 .text.64       0x00000000        0x0 temp.elf
 .text.68       0x00000000        0x0 temp.elf
 .text.os_vUART_vIsr0
                0x00000000        0x0 temp.elf
 .text.73       0x00000000        0x0 temp.elf
 .text.os_vRestart
                0x00000000        0x0 temp.elf
 .text.83       0x00000000        0x0 temp.elf
 .text.pwrm_vRegisterWakeupCallback
                0x00000000        0x0 temp.elf
 .text.90       0x00000000        0x0 temp.elf
 .text.94       0x00000000        0x0 temp.elf
 .text.98       0x00000000        0x0 temp.elf
 .text.PDM_vSPIFlashConfig
                0x00000000        0x0 temp.elf
 .text.vUnmarkAllBuffersFromChangeset
                0x00000000        0x0 temp.elf
 .text.PDM_vSave
                0x00000000        0x0 temp.elf
 .text.102      0x00000000        0x0 temp.elf
 .text.109      0x00000000        0x0 temp.elf
 .text.ovly.ZBAPL."/cygdrive/c/ATLAS_SANDBOX/Components/ZPSAPL_ATLAS_ZPS_APL_1v3_RC3/Source/AF/zps_apl_af.c".270
                0x00000000        0x0 temp.elf
 .text.ovly.ZBAPL."/cygdrive/c/ATLAS_SANDBOX/Components/ZPSAPL_ATLAS_ZPS_APL_1v3_RC3/Source/AF/zps_apl_af.c".284
                0x00000000        0x0 temp.elf
 .text.ovly.ZBAPL."/cygdrive/c/ATLAS_SANDBOX/Components/ZPSAPL_ATLAS_ZPS_APL_1v3_RC3/Source/AF/zps_apl_af.c".336
                0x00000000        0x0 temp.elf
 .text.ovly.ZBAPL."/cygdrive/c/ATLAS_SANDBOX/Components/ZPSAPL_ATLAS_ZPS_APL_1v3_RC3/Source/AF/zps_apl_af.c".349
                0x00000000        0x0 temp.elf
 .text.ovly.ZBAPL."/cygdrive/c/ATLAS_SANDBOX/Components/ZPSAPL_ATLAS_ZPS_APL_1v3_RC3/Source/AF/zps_apl_af.c".314
                0x00000000        0x0 temp.elf
 .text.ovly.ZBAPL."/cygdrive/c/ATLAS_SANDBOX/Components/ZPSAPL_ATLAS_ZPS_APL_1v3_RC3/Source/AF/zps_apl_af.c".297
                0x00000000        0x0 temp.elf
 .text.ovly.ZBAPL."/cygdrive/c/ATLAS_SANDBOX/Components/ZPSAPL_ATLAS_ZPS_APL_1v3_RC3/Source/AF/zps_apl_af.c".229
                0x00000000        0x0 temp.elf
 .text.ovly.ZBAPL."/cygdrive/c/ATLAS_SANDBOX/Components/ZPSAPL_ATLAS_ZPS_APL_1v3_RC3/Source/AF/zps_apl_af.c".182
                0x00000000        0x0 temp.elf
 .text.ovly.ZBAPL."/cygdrive/c/ATLAS_SANDBOX/Components/ZPSAPL_ATLAS_ZPS_APL_1v3_RC3/Source/AF/zps_apl_af.c".163
                0x00000000        0x0 temp.elf
 .text.ovly.ZBAPL."/cygdrive/c/ATLAS_SANDBOX/Components/ZPSAPL_ATLAS_ZPS_APL_1v3_RC3/Source/AF/zps_apl_af.c".145
                0x00000000        0x0 temp.elf
 .text.ovly.ZBAPL."/cygdrive/c/ATLAS_SANDBOX/Components/ZPSAPL_ATLAS_ZPS_APL_1v3_RC3/Source/AF/zps_apl_af.c".716
                0x00000000        0x0 temp.elf
 .text.ovly.ZBAPL."/cygdrive/c/ATLAS_SANDBOX/Components/ZPSAPL_ATLAS_ZPS_APL_1v3_RC3/Source/AF/zps_apl_af.c".675
                0x00000000        0x0 temp.elf
 .text.ovly.ZBAPL."/cygdrive/c/ATLAS_SANDBOX/Components/ZPSAPL_ATLAS_ZPS_APL_1v3_RC3/Source/AF/zps_apl_af.c".624
                0x00000000        0x0 temp.elf
 .text.ovly.ZBAPL."/cygdrive/c/ATLAS_SANDBOX/Components/ZPSAPL_ATLAS_ZPS_APL_1v3_RC3/Source/AF/zps_apl_af.c".580
                0x00000000        0x0 temp.elf
 .text.ovly.ZBAPL."/cygdrive/c/ATLAS_SANDBOX/Components/ZPSAPL_ATLAS_ZPS_APL_1v3_RC3/Source/AF/zps_apl_af.c".537
                0x00000000        0x0 temp.elf
 .text.ovly.ZBAPL."/cygdrive/c/ATLAS_SANDBOX/Components/ZPSAPL_ATLAS_ZPS_APL_1v3_RC3/Source/AF/zps_apl_af.c".493
                0x00000000        0x0 temp.elf
 .text.ovly.ZBAPL."/cygdrive/c/ATLAS_SANDBOX/Components/ZPSAPL_ATLAS_ZPS_APL_1v3_RC3/Source/AF/zps_apl_af.c".439
                0x00000000        0x0 temp.elf
 .text.113      0x00000000        0x0 temp.elf
 .text.eCopyFragmentToApdu
                0x00000000        0x0 temp.elf
 .text.zps_vSendExtendedAckDataFrame
                0x00000000        0x0 temp.elf
 .text.zps_vHandleApsdeDataFragInd
                0x00000000        0x0 temp.elf
 .text.zps_vFragmentWindowTimeout
                0x00000000        0x0 temp.elf
 .text.118      0x00000000        0x0 temp.elf
 .text.122      0x00000000        0x0 temp.elf
 .text.126      0x00000000        0x0 temp.elf
 .text.u8BlocksToSendInWindow
                0x00000000        0x0 temp.elf
 .text.zps_psAplApsFragTransmitGetRecord
                0x00000000        0x0 temp.elf
 .text.zps_vAplApsFragTransmitFree
                0x00000000        0x0 temp.elf
 .text.zps_vAplApsFragTransmitNotifyApp
                0x00000000        0x0 temp.elf
 .text.zps_vSendNextFragment
                0x00000000        0x0 temp.elf
 .text.zps_eStartFragmentedTransmission
                0x00000000        0x0 temp.elf
 .text.zps_vFragmentTimerHandler
                0x00000000        0x0 temp.elf
 .text.zps_vFragmentAckHandler
                0x00000000        0x0 temp.elf
 .text.131      0x00000000        0x0 temp.elf
 .text.ovly.ZBAPL."/cygdrive/c/ATLAS_SANDBOX/Components/ZPSAPL_ATLAS_ZPS_APL_1v3_RC3/Source/APS/zps_apl_apsme.c".366
                0x00000000        0x0 temp.elf
 .text.ovly.ZBAPL."/cygdrive/c/ATLAS_SANDBOX/Components/ZPSAPL_ATLAS_ZPS_APL_1v3_RC3/Source/APS/zps_apl_apsme.c".396
                0x00000000        0x0 temp.elf
 .text.ovly.ZBAPL."/cygdrive/c/ATLAS_SANDBOX/Components/ZPSAPL_ATLAS_ZPS_APL_1v3_RC3/Source/APS/zps_apl_apsme.c".1539
                0x00000000        0x0 temp.elf
 .text.ovly.ZBAPL."/cygdrive/c/ATLAS_SANDBOX/Components/ZPSAPL_ATLAS_ZPS_APL_1v3_RC3/Source/APS/zps_apl_apsme.c".1629
                0x00000000        0x0 temp.elf
 .text.ovly.ZBAPL."/cygdrive/c/ATLAS_SANDBOX/Components/ZPSAPL_ATLAS_ZPS_APL_1v3_RC3/Source/APS/zps_apl_apsme.c".1826
                0x00000000        0x0 temp.elf
 .text.ovly.ZBAPL."/cygdrive/c/ATLAS_SANDBOX/Components/ZPSAPL_ATLAS_ZPS_APL_1v3_RC3/Source/APS/zps_apl_apsme.c".1869
                0x00000000        0x0 temp.elf
 .text.ovly.ZBAPL."/cygdrive/c/ATLAS_SANDBOX/Components/ZPSAPL_ATLAS_ZPS_APL_1v3_RC3/Source/APS/zps_apl_apsme.c".1975
                0x00000000        0x0 temp.elf
 .text.ovly.ZBAPL."/cygdrive/c/ATLAS_SANDBOX/Components/ZPSAPL_ATLAS_ZPS_APL_1v3_RC3/Source/APS/zps_apl_apsme.c".2003
                0x00000000        0x0 temp.elf
 .text.ovly.ZBAPL."/cygdrive/c/ATLAS_SANDBOX/Components/ZPSAPL_ATLAS_ZPS_APL_1v3_RC3/Source/APS/zps_apl_apsme.c".2034
                0x00000000        0x0 temp.elf
 .text.ovly.ZBAPL."/cygdrive/c/ATLAS_SANDBOX/Components/ZPSAPL_ATLAS_ZPS_APL_1v3_RC3/Source/APS/zps_apl_apsme.c".2074
                0x00000000        0x0 temp.elf
 .text.ovly.ZBAPL."/cygdrive/c/ATLAS_SANDBOX/Components/ZPSAPL_ATLAS_ZPS_APL_1v3_RC3/Source/APS/zps_apl_apsme.c".2109
                0x00000000        0x0 temp.elf
 .text.ovly.ZBAPL."/cygdrive/c/ATLAS_SANDBOX/Components/ZPSAPL_ATLAS_ZPS_APL_1v3_RC3/Source/APS/zps_apl_apsme.c".1897
                0x00000000        0x0 temp.elf
 .text.ovly.ZBAPL."/cygdrive/c/ATLAS_SANDBOX/Components/ZPSAPL_ATLAS_ZPS_APL_1v3_RC3/Source/APS/zps_apl_apsme.c".549
                0x00000000        0x0 temp.elf
 .text.ovly.ZBAPL."/cygdrive/c/ATLAS_SANDBOX/Components/ZPSAPL_ATLAS_ZPS_APL_1v3_RC3/Source/APS/zps_apl_apsme.c".492
                0x00000000        0x0 temp.elf
 .text.ovly.ZBAPL."/cygdrive/c/ATLAS_SANDBOX/Components/ZPSAPL_ATLAS_ZPS_APL_1v3_RC3/Source/APS/zps_apl_apsme.c".436
                0x00000000        0x0 temp.elf
 .text.ovly.ZBAPL."/cygdrive/c/ATLAS_SANDBOX/Components/ZPSAPL_ATLAS_ZPS_APL_1v3_RC3/Source/APS/zps_apl_apsme.c".208
                0x00000000        0x0 temp.elf
 .text.ovly.ZBAPL."/cygdrive/c/ATLAS_SANDBOX/Components/ZPSAPL_ATLAS_ZPS_APL_1v3_RC3/Source/APS/zps_apl_apsme.c".1696
                0x00000000        0x0 temp.elf
 .text.ovly.ZBAPL."/cygdrive/c/ATLAS_SANDBOX/Components/ZPSAPL_ATLAS_ZPS_APL_1v3_RC3/Source/APS/zps_apl_apsme.c".1783
                0x00000000        0x0 temp.elf
 .text.ovly.ZBAPL."/cygdrive/c/ATLAS_SANDBOX/Components/ZPSAPL_ATLAS_ZPS_APL_1v3_RC3/Source/APS/zps_apl_apsme.c".292
                0x00000000        0x0 temp.elf
 .text.ovly.ZBAPL."/cygdrive/c/ATLAS_SANDBOX/Components/ZPSAPL_ATLAS_ZPS_APL_1v3_RC3/Source/APS/zps_apl_apsme.c".1039
                0x00000000        0x0 temp.elf
 .text.ovly.ZBAPL."/cygdrive/c/ATLAS_SANDBOX/Components/ZPSAPL_ATLAS_ZPS_APL_1v3_RC3/Source/APS/zps_apl_apsme.c".912
                0x00000000        0x0 temp.elf
 .text.136      0x00000000        0x0 temp.elf
 .text.zps_vHandleExtendedDataAckFrame
                0x00000000        0x0 temp.elf
 .text.141      0x00000000        0x0 temp.elf
 .text.zps_vAplSecSetInitialSecurityState
                0x00000000        0x0 temp.elf
 .text.146      0x00000000        0x0 temp.elf
 .text.ovly.ZBAPL."/cygdrive/c/ATLAS_SANDBOX/Components/ZPSAPL_ATLAS_ZPS_APL_1v3_RC3/Source/APS/zps_apl_aib.c".101
                0x00000000        0x0 temp.elf
 .text.ovly.ZBAPL."/cygdrive/c/ATLAS_SANDBOX/Components/ZPSAPL_ATLAS_ZPS_APL_1v3_RC3/Source/APS/zps_apl_aib.c".121
                0x00000000        0x0 temp.elf
 .text.ovly.ZBAPL."/cygdrive/c/ATLAS_SANDBOX/Components/ZPSAPL_ATLAS_ZPS_APL_1v3_RC3/Source/APS/zps_apl_aib.c".132
                0x00000000        0x0 temp.elf
 .text.150      0x00000000        0x0 temp.elf
 .text.ovly.ZDO_NM."/cygdrive/c/ATLAS_SANDBOX/Components/ZPSAPL_ATLAS_ZPS_APL_1v3_RC3/Source/ZDO/zps_apl_zdo_nwkmanager.c".401
                0x00000000        0x0 temp.elf
 .text.ovly.ZDO_NM."/cygdrive/c/ATLAS_SANDBOX/Components/ZPSAPL_ATLAS_ZPS_APL_1v3_RC3/Source/ZDO/zps_apl_zdo_nwkmanager.c".549
                0x00000000        0x0 temp.elf
 .text.ovly.ZDO_NM."/cygdrive/c/ATLAS_SANDBOX/Components/ZPSAPL_ATLAS_ZPS_APL_1v3_RC3/Source/ZDO/zps_apl_zdo_nwkmanager.c".582
                0x00000000        0x0 temp.elf
 .text.ovly.ZDO_NM."/cygdrive/c/ATLAS_SANDBOX/Components/ZPSAPL_ATLAS_ZPS_APL_1v3_RC3/Source/ZDO/zps_apl_zdo_nwkmanager.c".1291
                0x00000000        0x0 temp.elf
 .text.ovly.ZDO_NM."/cygdrive/c/ATLAS_SANDBOX/Components/ZPSAPL_ATLAS_ZPS_APL_1v3_RC3/Source/ZDO/zps_apl_zdo_nwkmanager.c".1257
                0x00000000        0x0 temp.elf
 .text.ovly.ZDO_NM."/cygdrive/c/ATLAS_SANDBOX/Components/ZPSAPL_ATLAS_ZPS_APL_1v3_RC3/Source/ZDO/zps_apl_zdo_nwkmanager.c".1213
                0x00000000        0x0 temp.elf
 .text.ovly.ZDO_NM."/cygdrive/c/ATLAS_SANDBOX/Components/ZPSAPL_ATLAS_ZPS_APL_1v3_RC3/Source/ZDO/zps_apl_zdo_nwkmanager.c".1060
                0x00000000        0x0 temp.elf
 .text.ovly.ZDO_NM."/cygdrive/c/ATLAS_SANDBOX/Components/ZPSAPL_ATLAS_ZPS_APL_1v3_RC3/Source/ZDO/zps_apl_zdo_nwkmanager.c".938
                0x00000000        0x0 temp.elf
 .text.ovly.ZDO_NM."/cygdrive/c/ATLAS_SANDBOX/Components/ZPSAPL_ATLAS_ZPS_APL_1v3_RC3/Source/ZDO/zps_apl_zdo_nwkmanager.c".877
                0x00000000        0x0 temp.elf
 .text.ovly.ZDO_NM."/cygdrive/c/ATLAS_SANDBOX/Components/ZPSAPL_ATLAS_ZPS_APL_1v3_RC3/Source/ZDO/zps_apl_zdo_nwkmanager.c".825
                0x00000000        0x0 temp.elf
 .text.ovly.ZDO_NM."/cygdrive/c/ATLAS_SANDBOX/Components/ZPSAPL_ATLAS_ZPS_APL_1v3_RC3/Source/ZDO/zps_apl_zdo_nwkmanager.c".673
                0x00000000        0x0 temp.elf
 .text.zps_eAplZdoPoll
                0x00000000        0x0 temp.elf
 .text.ovly.ZDO_NM."/cygdrive/c/ATLAS_SANDBOX/Components/ZPSAPL_ATLAS_ZPS_APL_1v3_RC3/Source/ZDO/zps_apl_zdo_nwkmanager.c".993
                0x00000000        0x0 temp.elf
 .text.ovly.ZDO_NM."/cygdrive/c/ATLAS_SANDBOX/Components/ZPSAPL_ATLAS_ZPS_APL_1v3_RC3/Source/ZDO/zps_apl_zdo_nwkmanager.c".1105
                0x00000000        0x0 temp.elf
 .text.ovly.ZDO_NM."/cygdrive/c/ATLAS_SANDBOX/Components/ZPSAPL_ATLAS_ZPS_APL_1v3_RC3/Source/ZDO/zps_apl_zdo_nwkmanager.c".623
                0x00000000        0x0 temp.elf
 .text.ovly.ZDO_NM."/cygdrive/c/ATLAS_SANDBOX/Components/ZPSAPL_ATLAS_ZPS_APL_1v3_RC3/Source/ZDO/zps_apl_zdo_nwkmanager.c".598
                0x00000000        0x0 temp.elf
 .text.ovly.ZDO_NM."/cygdrive/c/ATLAS_SANDBOX/Components/ZPSAPL_ATLAS_ZPS_APL_1v3_RC3/Source/ZDO/zps_apl_zdo_nwkmanager.c".504
                0x00000000        0x0 temp.elf
 .text.ovly.ZDO_NM."/cygdrive/c/ATLAS_SANDBOX/Components/ZPSAPL_ATLAS_ZPS_APL_1v3_RC3/Source/ZDO/zps_apl_zdo_nwkmanager.c".748
                0x00000000        0x0 temp.elf
 .text.155      0x00000000        0x0 temp.elf
 .text.159      0x00000000        0x0 temp.elf
 .text.163      0x00000000        0x0 temp.elf
 .text.168      0x00000000        0x0 temp.elf
 .text.173      0x00000000        0x0 temp.elf
 .text.178      0x00000000        0x0 temp.elf
 .text.183      0x00000000        0x0 temp.elf
 .text.188      0x00000000        0x0 temp.elf
 .text.193      0x00000000        0x0 temp.elf
 .text.198      0x00000000        0x0 temp.elf
 .text.203      0x00000000        0x0 temp.elf
 .text.208      0x00000000        0x0 temp.elf
 .text.213      0x00000000        0x0 temp.elf
 .text.218      0x00000000        0x0 temp.elf
 .text.223      0x00000000        0x0 temp.elf
 .text.228      0x00000000        0x0 temp.elf
 .text.233      0x00000000        0x0 temp.elf
 .text.238      0x00000000        0x0 temp.elf
 .text.243      0x00000000        0x0 temp.elf
 .text.247      0x00000000        0x0 temp.elf
 .text.ovly.ZDO_NMC."/cygdrive/c/ATLAS_SANDBOX/Components/ZPSAPL_ATLAS_ZPS_APL_1v3_RC3/Source/ZDO/zps_apl_zdo_nwkmanager_client.c".97
                0x00000000        0x0 temp.elf
 .text.252      0x00000000        0x0 temp.elf
 .text.ovly.ZDP."/cygdrive/c/ATLAS_SANDBOX/Components/ZPSAPL_ATLAS_ZPS_APL_1v3_RC3/Source/ZDP/zps_apl_zdp_apsde_req.c".101
                0x00000000        0x0 temp.elf
 .text.257      0x00000000        0x0 temp.elf
 .text.262      0x00000000        0x0 temp.elf
 .text.267      0x00000000        0x0 temp.elf
 .text.272      0x00000000        0x0 temp.elf
 .text.277      0x00000000        0x0 temp.elf
 .text.282      0x00000000        0x0 temp.elf
 .text.287      0x00000000        0x0 temp.elf
 .text.292      0x00000000        0x0 temp.elf
 .text.297      0x00000000        0x0 temp.elf
 .text.301      0x00000000        0x0 temp.elf
 .text.306      0x00000000        0x0 temp.elf
 .text.311      0x00000000        0x0 temp.elf
 .text.315      0x00000000        0x0 temp.elf
 .text.320      0x00000000        0x0 temp.elf
 .text.327      0x00000000        0x0 temp.elf
 .text.331      0x00000000        0x0 temp.elf
 .text.ZPS_pvNwkGetHandle
                0x00000000        0x0 temp.elf
 .text.335      0x00000000        0x0 temp.elf
 .text.zps_vNwkFreeMcpsHandle
                0x00000000        0x0 temp.elf
 .text.340      0x00000000        0x0 temp.elf
 .text.344      0x00000000        0x0 temp.elf
 .text.ZPS_vNwkNibNtDiscSetPParent
                0x00000000        0x0 temp.elf
 .text.ZPS_vNwkNibClearDiscoveryNT
                0x00000000        0x0 temp.elf
 .text.349      0x00000000        0x0 temp.elf
 .text.353      0x00000000        0x0 temp.elf
 .text.357      0x00000000        0x0 temp.elf
 .text.361      0x00000000        0x0 temp.elf
 .text.366      0x00000000        0x0 temp.elf
 .text.371      0x00000000        0x0 temp.elf
 .text.375      0x00000000        0x0 temp.elf
 .text.379      0x00000000        0x0 temp.elf
 .text.383      0x00000000        0x0 temp.elf
 .text.387      0x00000000        0x0 temp.elf
 .text.391      0x00000000        0x0 temp.elf
 .text.397      0x00000000        0x0 temp.elf
 .text.402      0x00000000        0x0 temp.elf
 .text.406      0x00000000        0x0 temp.elf
 .text.411      0x00000000        0x0 temp.elf
 .text.415      0x00000000        0x0 temp.elf
 .text.420      0x00000000        0x0 temp.elf
 .text.zps_eSdeGenlIllegal
                0x00000000        0x0 temp.elf
 .text.424      0x00000000        0x0 temp.elf
 .text.428      0x00000000        0x0 temp.elf
 .text.432      0x00000000        0x0 temp.elf
 .text.437      0x00000000        0x0 temp.elf
 .text.441      0x00000000        0x0 temp.elf
 .text.445      0x00000000        0x0 temp.elf
 .text.449      0x00000000        0x0 temp.elf
 .text.453      0x00000000        0x0 temp.elf
 .text.457      0x00000000        0x0 temp.elf
 .text.461      0x00000000        0x0 temp.elf
 .text.465      0x00000000        0x0 temp.elf
 .text.469      0x00000000        0x0 temp.elf
 .text.473      0x00000000        0x0 temp.elf
 .text.477      0x00000000        0x0 temp.elf
 .text.484      0x00000000        0x0 temp.elf
 .text.489      0x00000000        0x0 temp.elf
 .text.493      0x00000000        0x0 temp.elf
 .text.498      0x00000000        0x0 temp.elf
 .text.MAC_vHandleTOFMlmeReqRsp
                0x00000000        0x0 temp.elf
 .text.vAppApiMlmeRequest
                0x00000000        0x0 temp.elf
 .text.vAppApiMcpsRequest
                0x00000000        0x0 temp.elf
 .text.eAppApiPlmeSet
                0x00000000        0x0 temp.elf
 .text.eAppApiPlmeGet
                0x00000000        0x0 temp.elf
 .text.vAppApiSaveMacSettings
                0x00000000        0x0 temp.elf
 .text.vAppApiRegisterTxStartCallback
                0x00000000        0x0 temp.elf
 .text.psTSV_GetHead
                0x00000000        0x0 temp.elf
 .text.vMAC_RestoreSettings
                0x00000000        0x0 temp.elf
 .text.vAppApiRestoreMacSettings
                0x00000000        0x0 temp.elf
 .text.502      0x00000000        0x0 temp.elf
 .text.vAHI_ClearSystemEventStatus
                0x00000000        0x0 temp.elf
 .text.u16AHI_WatchdogReadValue
                0x00000000        0x0 temp.elf
 .text.bAHI_GetClkSource
                0x00000000        0x0 temp.elf
 .text.vTimerCallback
                0x00000000        0x0 temp.elf
 .text.vAHI_ETSIHighPowerModuleEnable
                0x00000000        0x0 temp.elf
 .text.vAHI_HighPowerModuleEnable
                0x00000000        0x0 temp.elf
 .text.vAHI_EnableFastStartUp
                0x00000000        0x0 temp.elf
 .text.bPollClkSource
                0x00000000        0x0 temp.elf
 .text.vAHI_SelectClockSource
                0x00000000        0x0 temp.elf
 .text.bAHI_SetClockRate
                0x00000000        0x0 temp.elf
 .text.Delay    0x00000000        0x0 temp.elf
 .text.bAHI_Set32KhzClockMode
                0x00000000        0x0 temp.elf
 .text.507      0x00000000        0x0 temp.elf
 .text.vAHI_IntHandlerTimer0
                0x00000000        0x0 temp.elf
 .text.vAHI_Timer0RegisterCallback
                0x00000000        0x0 temp.elf
 .text.vAHI_IntHandlerTimer1
                0x00000000        0x0 temp.elf
 .text.vAHI_Timer1RegisterCallback
                0x00000000        0x0 temp.elf
 .text.vAHI_IntHandlerTimer2
                0x00000000        0x0 temp.elf
 .text.vAHI_Timer2RegisterCallback
                0x00000000        0x0 temp.elf
 .text.511      0x00000000        0x0 temp.elf
 .text.515      0x00000000        0x0 temp.elf
 .text.vAHI_WakeTimerStartLarge
                0x00000000        0x0 temp.elf
 .text.u64AHI_WakeTimerReadLarge
                0x00000000        0x0 temp.elf
 .text.u32AHI_WakeTimerRead
                0x00000000        0x0 temp.elf
 .text.u32AHI_WakeTimerCalibrateEnhanced
                0x00000000        0x0 temp.elf
 .text.519      0x00000000        0x0 temp.elf
 .text.vAHI_UartSetClocksPerBit
                0x00000000        0x0 temp.elf
 .text.u8AHI_UartReadRxFifoLevel
                0x00000000        0x0 temp.elf
 .text.u8AHI_UartReadTxFifoLevel
                0x00000000        0x0 temp.elf
 .text.vAHI_UartSetRTS
                0x00000000        0x0 temp.elf
 .text.vAHI_UartSetBreak
                0x00000000        0x0 temp.elf
 .text.524      0x00000000        0x0 temp.elf
 .text.541      0x00000000        0x0 temp.elf
 .text.PWRM_eStartActivity
                0x00000000        0x0 temp.elf
 .text.545      0x00000000        0x0 temp.elf
 .text.vAHI_SpiReadConfiguration
                0x00000000        0x0 temp.elf
 .text.vAHI_SpiRestoreConfiguration
                0x00000000        0x0 temp.elf
 .text.vAHI_SpiStartTransfer
                0x00000000        0x0 temp.elf
 .text.vAHI_SpiStartTransfer32
                0x00000000        0x0 temp.elf
 .text.vAHI_SpiStartTransfer16
                0x00000000        0x0 temp.elf
 .text.vAHI_SpiStartTransfer8
                0x00000000        0x0 temp.elf
 .text.vAHI_SpiContinuous
                0x00000000        0x0 temp.elf
 .text.549      0x00000000        0x0 temp.elf
 .text.552      0x00000000        0x0 temp.elf
 .text.555      0x00000000        0x0 temp.elf
 .text.558      0x00000000        0x0 temp.elf
 .text.561      0x00000000        0x0 temp.elf
 .text.565      0x00000000        0x0 temp.elf
 .text.570      0x00000000        0x0 temp.elf
 .text.573      0x00000000        0x0 temp.elf
 .text.579      0x00000000        0x0 temp.elf
 .text.584      0x00000000        0x0 temp.elf
 .text.589      0x00000000        0x0 temp.elf
 .rodata.OS_g_u32Version
                0x00000000        0x0 temp.elf
 .rodata.PWRM_g_u32Version
                0x00000000        0x0 temp.elf
 .rodata.PDM_g_u32Version
                0x00000000        0x0 temp.elf
 .rodata.ZPS_g_u32AplVersion
                0x00000000        0x0 temp.elf
 .rodata.str1.1.116
                0x00000000        0x0 temp.elf
 .zps_apl_ZdoDefaultServerContextSize
                0x00000000        0x0 temp.elf
 .zps_apl_ZdoEndDeviceBindServerContextSize
                0x00000000        0x0 temp.elf
 .zps_apl_ZdoNwkAddrServerContextSize
                0x00000000        0x0 temp.elf
 .zps_apl_ZdoIeeeAddrServerContextSize
                0x00000000        0x0 temp.elf
 .zps_apl_ZdoMatchDescServerContextSize
                0x00000000        0x0 temp.elf
 .zps_apl_ZdoNodeDescServerContextSize
                0x00000000        0x0 temp.elf
 .zps_apl_ZdoSimpleDescServerContextSize
                0x00000000        0x0 temp.elf
 .zps_apl_ZdoPowerDescServerContextSize
                0x00000000        0x0 temp.elf
 .zps_apl_ZdoActiveEpServerContextSize
                0x00000000        0x0 temp.elf
 .zps_apl_ZdoDeviceAnnceServerContextSize
                0x00000000        0x0 temp.elf
 .zps_apl_ZdoPermitJoiningServerContextSize
                0x00000000        0x0 temp.elf
 .zps_apl_ZdoSystemServerDiscoveryServerContextSize
                0x00000000        0x0 temp.elf
 .zps_apl_ZdoMgmtLqiServerContextSize
                0x00000000        0x0 temp.elf
 .zps_apl_ZdoMgmtRtgServerContextSize
                0x00000000        0x0 temp.elf
 .zps_apl_ZdoMgmtLeaveServerContextSize
                0x00000000        0x0 temp.elf
 .zps_apl_ZdoMgmtNWKUpdateServerContextSize
                0x00000000        0x0 temp.elf
 .zps_apl_ZdoZdoClientContextSize
                0x00000000        0x0 temp.elf
 .libobjsize    0x00000000        0x0 temp.elf
 .rodata.ZPS_g_u32MacVersion
                0x00000000        0x0 temp.elf
 .rodata.ZPS_g_u32TsvVersion
                0x00000000        0x0 temp.elf
 .rodata.AESSW_g_u32Version
                0x00000000        0x0 temp.elf
 .rodata.PDUM_g_u32Version
                0x00000000        0x0 temp.elf
 .rodata.str1.1.487
                0x00000000        0x0 temp.elf
 .rodata.DBG_g_u32Version
                0x00000000        0x0 temp.elf
 .rodata        0x00000000        0x0 temp.elf
 .rodata.522    0x00000000        0x0 temp.elf
 .rodata.577    0x00000000        0x0 temp.elf
 .stabstr       0x00000000        0x0 temp.elf

Memory Configuration

Name             Origin             Length             Attributes
ram              0x04000000         0x00020000
flash            0x04000000         0x00080000
rom              0x00000000         0x00020000
*default*        0x00000000         0xffffffff

Linker script and memory map

LOAD temp.elf
LOAD /cygdrive/c/Jennic/Tools/ba-elf-ba2/bin/../lib/gcc/ba-elf/4.1.2/ba2/libgcc.a
LOAD /cygdrive/c/Jennic/Tools/ba-elf-ba2/bin/../lib/gcc/ba-elf/4.1.2/../../../../ba-elf/lib/ba2/libc.a
LOAD /cygdrive/c/Jennic/Tools/ba-elf-ba2/bin/../lib/gcc/ba-elf/4.1.2/ba2/libgcc.a
                0x00001400                _stack_size = 0x1400
                0x000000c0                __exception_bus_error = 0xc0
                0x00000124                __exception_tick_timer = 0x124
                0x00000188                __exception_unaligned_access = 0x188
                0x000001ec                __exception_illegal_instruction = 0x1ec
                0x00000250                __exception_external_interrupt = 0x250
                0x000002b4                __exception_syscall = 0x2b4
                0x00000318                __exception_trap = 0x318
                0x0000037c                __exception_generic = 0x37c
                0x000003e0                __exception_stack_overflow = 0x3e0
                0x00000444                __exception_reset = 0x444
                0x00000a9c                _sJennicLogo = 0xa9c
                0x0000a1cc                __stext = 0xa1cc
                0x0000a20e                ___errno = 0xa20e
                0x0000a25e                ___udivsi3 = 0xa25e
                0x0000a25e                ___udivsi3 = 0xa25e
                0x0000a266                ___umodsi3 = 0xa266
                0x0000a266                ___umodsi3 = 0xa266
                0x0000a26e                ___divsi3 = 0xa26e
                0x0000a29a                ___modsi3 = 0xa29a
                0x0000a434                _vAHI_ApConfigure = 0xa434
                0x0000a49f                _bAHI_APRegulatorEnabled = 0xa49f
                0x0000a4ac                _vAHI_AdcEnable = 0xa4ac
                0x0000a5ac                _bAHI_AdcPoll = 0xa5ac
                0x0000a604                _vAHI_DacEnable = 0xa604
                0x0000a686                _vAHI_DacDisable = 0xa686
                0x0000a6a3                _vAHI_DacOutput = 0xa6a3
                0x0000a6c7                _bAHI_DacPoll = 0xa6c7
                0x0000a89a                _vAHI_ComparatorEnable = 0xa89a
                0x0000a8d5                _vAHI_ComparatorDisable = 0xa8d5
                0x0000a945                _vAHI_ComparatorWakeEnable = 0xa945
                0x0000a94b                _u8AHI_ComparatorStatus = 0xa94b
                0x0000a95b                _u8AHI_ComparatorWakeStatus = 0xa95b
                0x0000a96f                _bAHI_DaiPollBusy = 0xa96f
                0x0000a97e                _vAHI_DaiReadAudioData = 0xa97e
                0x0000a993                _vAHI_DaiWriteAudioData = 0xa993
                0x0000a9a0                _vAHI_IntHandlerDai = 0xa9a0
                0x0000a9be                _vAHI_DaiRegisterCallback = 0xa9be
                0x0000a9eb                _vAHI_DaiStartTransaction = 0xa9eb
                0x0000aa0e                _vAHI_DaiConnectToFIFO = 0xaa0e
                0x0000aac4                _vAHI_DaiSetBitClock = 0xaac4
                0x0000aaed                _vAHI_DaiInterruptEnable = 0xaaed
                0x0000ab05                _vAHI_DaiEnable = 0xab05
                0x0000ab28                _vAHI_DioSetDirection = 0xab28
                0x0000ab3c                _vAHI_DioSetOutput = 0xab3c
                0x0000ab64                _u32AHI_DioReadInput = 0xab64
                0x0000aba9                _vAHI_DioSetByte = 0xaba9
                0x0000abc3                _u8AHI_DioReadByte = 0xabc3
                0x0000ad82                _bAHI_FifoRead = 0xad82
                0x0000ad9f                _vAHI_FifoWrite = 0xad9f
                0x0000adc4                _u8AHI_FifoReadTxLevel = 0xadc4
                0x0000ae8c                _vAHI_FifoEnable = 0xae8c
                0x0000aedf                _vAHI_FlashPowerUp = 0xaedf
                0x0000af14                _vAHI_FlashPowerDown = 0xaf14
                0x0000afa3                _bAHI_FullFlashRead = 0xafa3
                0x0000aff0                _bAHI_FullFlashProgram = 0xaff0
                0x0000b08d                _bAHI_FlashEraseSector = 0xb08d
                0x0000b281                _vAHI_IpDisable = 0xb281
                0x0000b3a6                _bAHI_IpTxDone = 0xb3a6
                0x0000b3c2                _bAHI_IpRxDataAvailable = 0xb3c2
                0x0000b3cf                _vAHI_IntHandlerSpiIp = 0xb3cf
                0x0000b3f1                _vAHI_IpRegisterCallback = 0xb3f1
                0x0000b44e                _bAHI_StartPulseCounter = 0xb44e
                0x0000b475                _bAHI_Clear32BitPulseCounter = 0xb475
                0x0000b579                _bAHI_Clear16BitPulseCounter = 0xb579
                0x0000b5e5                _bAHI_StopPulseCounter = 0xb5e5
                0x0000b630                _vAHI_SwReset = 0xb630
                0x0000b648                _vAHI_SiMasterConfigure = 0xb648
                0x0000b6bf                _vAHI_SiMasterWriteData8 = 0xb6bf
                0x0000b6c6                _vAHI_SiSlaveWriteData8 = 0xb6c6
                0x0000b6cd                _u8AHI_SiMasterReadData8 = 0xb6cd
                0x0000b6d7                _u8AHI_SiSlaveReadData8 = 0xb6d7
                0x0000b6e1                _vAHI_SiMasterWriteSlaveAddr = 0xb6e1
                0x0000b6fa                _bAHI_SiMasterPollBusy = 0xb6fa
                0x0000b707                _bAHI_SiMasterPollTransferInProgress = 0xb707
                0x0000b714                _bAHI_SiMasterCheckRxNack = 0xb714
                0x0000b721                _bAHI_SiMasterPollArbitrationLost = 0xb721
                0x0000b816                _vAHI_SiSlaveConfigure = 0xb816
                0x0000b714                _bAHI_SiMasterCheckRxNack = 0xb714
                0x0000b714                _bAHI_SiCheckRxNack = 0xb714
                0x0000b714                _bAHI_SiPollRxNack = 0xb714
                0x0000b648                _vAHI_SiConfigure = 0xb648
                0x0000b67d                _vAHI_SiSetCmdReg = 0xb67d
                0x0000b6bf                _vAHI_SiWriteData8 = 0xb6bf
                0x0000b6cd                _u8AHI_SiReadData8 = 0xb6cd
                0x0000b6e1                _vAHI_SiWriteSlaveAddr = 0xb6e1
                0x0000b6fa                _bAHI_SiPollBusy = 0xb6fa
                0x0000b707                _bAHI_SiPollTransferInProgress = 0xb707
                0x0000b721                _bAHI_SiPollArbitrationLost = 0xb721
                0x0000b871                _vAHI_SpiConfigure = 0xb871
                0x0000b8f7                _vAHI_SpiSetDelayReadEdge = 0xb8f7
                0x0000b97d                _vAHI_SpiSelect = 0xb97d
                0x0000b984                _vAHI_SpiStop = 0xb984
                0x0000b98d                _vAHI_SpiStartTransfer32 = 0xb98d
                0x0000b9a5                _u32AHI_SpiReadTransfer32 = 0xb9a5
                0x0000b9ac                _vAHI_SpiStartTransfer16 = 0xb9ac
                0x0000b9c4                _u16AHI_SpiReadTransfer16 = 0xb9c4
                0x0000b9ce                _vAHI_SpiStartTransfer8 = 0xb9ce
                0x0000b9e6                _u8AHI_SpiReadTransfer8 = 0xb9e6
                0x0000b9f0                _bAHI_SpiPollBusy = 0xb9f0
                0x0000b9fa                _vAHI_SpiWaitBusy = 0xb9fa
                0x0000ba07                _vAHI_IntHandlerSpiMaster = 0xba07
                0x0000ba2d                _vAHI_SpiRegisterCallback = 0xba2d
                0x0000ba45                _vAHI_SpiSetContinuousMode = 0xba45
                0x0000ba63                _u8AHI_PowerStatus = 0xba63
                0x0000ba6d                _vAHI_MemoryHold = 0xba6d
                0x0000baa9                _vAHI_ProtocolPower = 0xbaa9
                0x0000bac0                _vAHI_CpuDoze = 0xbac0
                0x0000bad3                _vAHI_IntHandlerSysCtrl = 0xbad3
                0x0000bb08                _vAHI_SysCtrlRegisterCallback = 0xbb08
                0x0000bb5d                _vAHI_AntennaDiversityOutputEnable = 0xbb5d
                0x0000bb9a                _vAHI_WatchdogStart = 0xbb9a
                0x0000bbad                _vAHI_WatchdogStop = 0xbbad
                0x0000bbc4                _vAHI_WatchdogRestart = 0xbbc4
                0x0000bc14                _u8AHI_GetSystemClkSpeed = 0xbc14
                0x0000bc23                _bAHI_Calibrate24MhzClock = 0xbc23
                0x0000bd85                _vAHI_PowerXTAL = 0xbd85
                0x0000beb6                _vAHI_StopRandomNumberGenerator = 0xbeb6
                0x0000bebf                _u16AHI_ReadRandomNumber = 0xbebf
                0x0000bf6d                _vAHI_PowerDown = 0xbf6d
                0x0000bfcd                _vAHI_TickTimerInit = 0xbfcd
                0x0000bff4                _vAHI_TickTimerWrite = 0xbff4
                0x0000bffd                _vAHI_TickTimerIntPendClr = 0xbffd
                0x0000c012                _bAHI_TickTimerIntStatus = 0xc012
                0x0000c021                _vAHI_TickTimerConfigure = 0xc021
                0x0000c03c                _vAHI_TickTimerIntEnable = 0xc03c
                0x0000c05d                _u32AHI_TickTimerRead = 0xc05d
                0x0000c066                _vAHI_TickTimerInterval = 0xc066
                0x0000c084                _vAHI_TickTimerISR = 0xc084
                0x0000c0c1                _vAHI_TimerEnable = 0xc0c1
                0x0000c168                _vAHI_TimerDisable = 0xc168
                0x0000c18e                _vAHI_TimerClockSelect = 0xc18e
                0x0000c1bb                _vAHI_TimerReadCaptureFreeRunning = 0xc1bb
                0x0000c1f4                _vAHI_TimerStop = 0xc1f4
                0x0000c216                _vAHI_TimerReadCapture = 0xc216
                0x0000c25e                _u8AHI_TimerFired = 0xc25e
                0x0000c30c                _vAHI_TimerStartDeltaSigma = 0xc30c
                0x0000c343                _vAHI_TimerStartRepeat = 0xc343
                0x0000c351                _vAHI_TimerStartSingleShot = 0xc351
                0x0000c362                _u16AHI_TimerReadCount = 0xc362
                0x0000c46f                _vAHI_UartEnable = 0xc46f
                0x0000c4c6                _vAHI_UartDisable = 0xc4c6
                0x0000c520                _vAHI_UartSetBaudDivisor = 0xc520
                0x0000c579                _vAHI_UartSetClockDivisor = 0xc579
                0x0000c588                _vAHI_UartSetControl = 0xc588
                0x0000c5e2                _vAHI_UartSetInterrupt = 0xc5e2
                0x0000c64c                _vAHI_UartReset = 0xc64c
                0x0000c67c                _u8AHI_UartReadLineStatus = 0xc67c
                0x0000c6a2                _u8AHI_UartReadModemStatus = 0xc6a2
                0x0000c6c8                _u8AHI_UartReadInterruptStatus = 0xc6c8
                0x0000c6ee                _vAHI_UartWriteData = 0xc6ee
                0x0000c70d                _u8AHI_UartReadData = 0xc70d
                0x0000c756                _vAHI_IntHandlerUart0 = 0xc756
                0x0000c77f                _vAHI_IntHandlerUart1 = 0xc77f
                0x0000c7a8                _vAHI_Uart0RegisterCallback = 0xc7a8
                0x0000c7c0                _vAHI_Uart1RegisterCallback = 0xc7c0
                0x0000c82f                _vAHI_WakeTimerEnable = 0xc82f
                0x0000c88b                _vAHI_WakeTimerStart = 0xc88b
                0x0000c944                _vAHI_WakeTimerStop = 0xc944
                0x0000c96b                _u8AHI_WakeTimerStatus = 0xc96b
                0x0000c975                _u8AHI_WakeTimerFiredStatus = 0xc975
                0x0000ca2c                _bACI_isBusy = 0xca2c
                0x0000ca44                _bACI_commandAccepted = 0xca44
                0x0000ca5e                _vACI_CmdWaitBusy = 0xca5e
                0x0000cb2d                _bACI_WriteKey = 0xcb2d
                0x0000cb43                _bACI_issueReset = 0xcb43
                0x0000cb61                _bACI_setMode = 0xcb61
                0x0000cb8f                _bACI_ReadOutputData = 0xcb8f
                0x0000cbc4                _bACI_WriteInputData = 0xcbc4
                0x0000cbe7                _vACI_IntHandlerAes = 0xcbe7
                0x0000cc0c                _vACI_SetInterruptCallback = 0xcc0c
                0x0000cc65                _vACI_ClearInterruptStatus = 0xcc65
                0x0000cc7f                _vACI_ClearInterruptEnable = 0xcc7f
                0x0000cc96                _vACI_SetInterruptEnable = 0xcc96
                0x0000ccea                _vACI_ReadInterruptEnable = 0xccea
                0x0000ccfb                _vACI_ReadInterruptStatus = 0xccfb
                0x0000cd0c                _bACI_ReadChecksumValidationResult = 0xcd0c
                0x0000cd2b                _bACI_ReadChecksumData = 0xcd2b
                0x0000cd86                _bACI_CCMstar = 0xcd86
                0x0000d06f                _bACI_CCMstarAuthenticateData = 0xd06f
                0x0000d0a9                _bACI_CCMstarEncodeData = 0xd0a9
                0x0000d0ce                _bACI_ECBencodeBuffer = 0xd0ce
                0x0000d153                _bACI_ECBencodeStripe = 0xd153
                0x0000d16a                _bACI_IEEECTRencodeData = 0xd16a
                0x0000d192                _pvAppApiDefGetMacHandle = 0xd192
                0x0000d192                _pvAppApiDefGetMacHandle = 0xd192
                0x0000d19b                _vAppApiDefMlmeRequest = 0xd19b
                0x0000d1ce                _vAppApiDefMcpsRequest = 0xd1ce
                0x0000d201                _vAppApiDefPowerUp = 0xd201
                0x0000d21f                _vAppApiDefSetPrbsSeed = 0xd21f
                0x0000d243                _vAppApiDefSetInterrupts = 0xd243
                0x0000d28e                _pvAppApiDefGetMacAddrLocation = 0xd28e
                0x0000d28e                _pvAppApiDefGetMacAddrLocation = 0xd28e
                0x0000d297                _vAppApiSetMacEntryPoints = 0xd297
                0x0000d2a6                _vAppApiGetMacEntryPoints = 0xd2a6
                0x0000d2bb                _vAppApiEnableBeaconResponse = 0xd2bb
                0x0000d327                _vAppApiDefSetVectors = 0xd327
                0x0000d394                _vAppApiDefStartStack = 0xd394
                0x0000d3e8                _u32AppApiDefInit = 0xd3e8
                0x0000d427                _vAppApiDefSaveMacSettings = 0xd427
                0x0000d470                _vAppApiDefRestoreMacSettings = 0xd470
                0x0000d53d                _vAppHousekeepingTimerExpiry = 0xd53d
                0x0000d564                _vAppHousekeepingInit = 0xd564
                0x0000db95                _MAC_pvCtor = 0xdb95
                0x0000de9d                _MAC_psPibGetHandle = 0xde9d
                0x0000dea4                _MAC_vPibSetShortAddr = 0xdea4
                0x0000deaf                _MAC_vPibSetPanId = 0xdeaf
                0x0000dee2                _MAC_vPibSetMaxCsmaBackoffs = 0xdee2
                0x0000df1f                _MAC_vPibSetRxOnWhenIdle = 0xdf1f
                0x0000df2f                _MAC_vPibSetPromiscuousMode = 0xdf2f
                0x0000e6b6                _MAC_vRegisterMlmeDcfmIndCallbacks = 0xe6b6
                0x0000e6c2                _MAC_vRegisterMcpsDcfmIndCallbacks = 0xe6c2
                0x0000eeb1                _MAC_vLPBRegisterCallback = 0xeeb1
                0x0000ef0c                _MAC_vLPBSetBeaconMultiplier = 0xef0c
                0x0000efa2                _MAC_vLPBSleep = 0xefa2
                0x0000f04b                _MAC_vLPBAdjustWakeForNextBeacon = 0xf04b
                0x0000f105                _MAC_bLPBProcessWake = 0xf105
                0x0000f1b6                _MAC_vLPBCalibrateTimer = 0xf1b6
                0x00011cfe                _u8AppApiReadMsq = 0x11cfe
                0x000136d0                _memcpy = 0x136d0
                0x00013748                _memcmp = 0x13748
                0x0001376c                _memset = 0x1376c
                0x0001377e                _vUTIL_NumToString = 0x1377e
                0x000137a6                _vUTIL_UartText = 0x137a6
                0x000137e6                _vUTIL_UartTextToNewLine = 0x137e6
                0x00013802                _vUTIL_UartInit = 0x13802
                0x0001dc21                ___muldi3 = 0x1dc21
                0x0001dcf4                ___udivdi3 = 0x1dcf4
                0x0001e1e8                ___mulsi3 = 0x1e1e8
                0x040003a8                _g_pvMac = 0x40003a8
                0x040003ac                _g_sXcv = 0x40003ac
                0x04000b20                _g_sLP = 0x4000b20
                0x04000b64                _aprMacVectorRamTable = 0x4000b64
                0x0400006c                _aprLPBMacVectorRamTable = 0x400006c
                0x04000d00                __app_ram_start = 0x4000d00
                0x0400006c                _aprLPBMacVectorRamTable = 0x400006c
                0x0000df00                _MAC_vSetExtAddr = 0xdf00
                0x0000f4a4                _phy_ePibGet = 0xf4a4
                0x0000f3fc                _phy_ePibSet = 0xf3fc
                0x0001362e                _TSV_eStop = 0x1362e
                0x00013498                _TSV_eOpen = 0x13498
                0x00013562                _TSV_eStart = 0x13562
                0x000136a4                _TSV_eClose = 0x136a4
                0x000133c5                _vXCV_IntHandlerPhy = 0x133c5
                0x00013346                _vXCV_IntHandlerBbc = 0x13346
                0x0000de04                _MAC_vHandleMlmeReqRsp = 0xde04
                0x0000dde2                _MAC_vHandleMcpsReqRsp = 0xdde2
                0x0000a2cb                _pvHeap_Alloc = 0xa2cb
                0x00011f29                _bTACframeInProgress = 0x11f29
                0x0000ef5c                _MAC_u32ConvertTo16uS = 0xef5c
                0x00013323                _XCV_vDevWriteIER = 0x13323
                0x0001332d                _XCV_vDevRMW_IER = 0x1332d
                0x0000e6ce                _mac_psDcfmIndGetBuf = 0xe6ce
                0x0000e6f1                _mac_eDcfmIndPost = 0xe6f1
                0x00012bbe                _vTSCsetUpwardSecurity = 0x12bbe
                0x040002b0                _au16TimerSettings = 0x40002b0
                0x04000044                _pSPIflashFncTable = 0x4000044
                0x00009867                _u8SelectFlashChipType = 0x9867
                0x0000981c                _u16ZSPIflashRDID = 0x981c
                0x0001341f                _RND_u32GetRand = 0x1341f
                0x00013454                _RND_u32GetRand256 = 0x13454
                0x00013416                _RND_vInit = 0x13416
                0x00000800                _minimum_heap_size = 0x800

.rom_workspace.os.o.s_u32CurrentPriorityMask
                0x040002f8        0x4
 *os.o(.bss.s_u32CurrentPriorityMask)
 .rom_workspace.os.o.s_u32CurrentPriorityMask
                0x040002f8        0x4 temp.elf

.rom_workspace.os.o.s_psCurrentTask
                0x040002fc        0x4
 *os.o(.bss.s_psCurrentTask)
 .rom_workspace.os.o.s_psCurrentTask
                0x040002fc        0x4 temp.elf

.rom_workspace.os.o.s_prvUnclaimedISR
                0x04000300        0x4
 *os.o(.bss.s_prvUnclaimedISR)
 .rom_workspace.os.o.s_prvUnclaimedISR
                0x04000300        0x4 temp.elf

.rom_workspace.os.o.s_u32SuspendIRQNesting
 *os.o(.bss.s_u32SuspendIRQNesting)

.rom_workspace.os.o.s_u8SuspendedIPL
 *os.o(.bss.s_u8SuspendedIPL)

.rom_workspace.os.o.s_u32PendingQueue
                0x0400030c        0x4
 *os.o(.bss.s_u32PendingQueue)
 .rom_workspace.os.o.s_u32PendingQueue
                0x0400030c        0x4 temp.elf

.rom_workspace.os.o.s_asTasks
                0x04000310        0x4
 *os.o(.bss.s_asTasks)
 .rom_workspace.os.o.s_asTasks
                0x04000310        0x4 temp.elf

.rom_workspace.os.o.s_u8OSLevelIPL
                0x04000314        0x1
 *os.o(.bss.s_u8OSLevelIPL)
 .rom_workspace.os.o.s_u8OSLevelIPL
                0x04000314        0x1 temp.elf

.rom.OS_eGetCurrentTask
 *(.text.OS_eGetCurrentTask)

.rom.OS_eGetMessageStatus
 *(.text.OS_eGetMessageStatus)

.rom.OS_eSuspendOSInterrupts
 *(.text.OS_eSuspendOSInterrupts)

.rom.OS_eResumeOSInterrupts
 *(.text.OS_eResumeOSInterrupts)

.rom.OS_eDisableAllInterrupts
 *(.text.OS_eDisableAllInterrupts)

.rom.OS_eEnableAllInterrupts
 *(.text.OS_eEnableAllInterrupts)

.rom.OS_eGetSWTimerStatus
                0x0001392e       0x1b
 *(.text.OS_eGetSWTimerStatus)
 .rom.OS_eGetSWTimerStatus
                0x0001392e       0x1b temp.elf
                0x0001392e                _OS_eGetSWTimerStatus

.rom.os_vUnclaimedInterrupt
                0x00013949       0x12
 *(.text.os_vUnclaimedInterrupt)
 .rom.os_vUnclaimedInterrupt
                0x00013949       0x12 temp.elf
                0x00013949                _os_vUnclaimedInterrupt

.rom.eExpireSWTimer
                0x00013a25       0x6b
 *(.text.eExpireSWTimer)
 .rom.eExpireSWTimer
                0x00013a25       0x6b temp.elf

.rom.OS_eEnterCriticalSection
                0x0001421e       0x97
 *(.text.OS_eEnterCriticalSection)
 .rom.OS_eEnterCriticalSection
                0x0001421e       0x97 temp.elf
                0x0001421e                _OS_eEnterCriticalSection
                0x04000130                _os_g_aprPatchTable = 0x4000130

.rom_workspace.pdum_nwk.o.s_psFreeListHead
                0x040002dc        0x4
 *pdum_nwk.o(.bss.s_psFreeListHead)
 .rom_workspace.pdum_nwk.o.s_psFreeListHead
                0x040002dc        0x4 temp.elf

.rom_workspace.pdum_nwk.o.s_psNPduPoolStart
                0x040002e0        0x4
 *pdum_nwk.o(.bss.s_psNPduPoolStart)
 .rom_workspace.pdum_nwk.o.s_psNPduPoolStart
                0x040002e0        0x4 temp.elf

.rom_workspace.pdum_nwk.o.s_psNPduPoolEnd
                0x040002e4        0x4
 *pdum_nwk.o(.bss.s_psNPduPoolEnd)
 .rom_workspace.pdum_nwk.o.s_psNPduPoolEnd
                0x040002e4        0x4 temp.elf

.rom_workspace.pdum_nwk.o.s_hMutex
                0x040002e8        0x4
 *pdum_nwk.o(.bss.s_hMutex)
 .rom_workspace.pdum_nwk.o.s_hMutex
                0x040002e8        0x4 temp.elf

.rom_workspace.pdum_apl.o.s_hMutex
                0x040002ec        0x4
 *pdum_apl.o(.bss.s_hMutex)
 .rom_workspace.pdum_apl.o.s_hMutex
                0x040002ec        0x4 temp.elf

.rom_workspace.pdum_apl.o.s_u16NumAPdus
                0x040002f0        0x2
 *pdum_apl.o(.bss.s_u16NumAPdus)
 .rom_workspace.pdum_apl.o.s_u16NumAPdus
                0x040002f0        0x2 temp.elf

.rom_workspace.pdum_apl.o.s_asAPduPool
                0x040002f4        0x4
 *pdum_apl.o(.bss.s_asAPduPool)
 .rom_workspace.pdum_apl.o.s_asAPduPool
                0x040002f4        0x4 temp.elf

.rom.PDUM_eNPduReadFooterNBO
                0x00001034       0x4c
 *(.text.PDUM_eNPduReadFooterNBO)
 .rom.PDUM_eNPduReadFooterNBO
                0x00001034       0x4c temp.elf
                0x00001034                _PDUM_eNPduReadFooterNBO

.rom.PDUM_eNPduReadHeaderNBO
                0x00001080       0x4e
 *(.text.PDUM_eNPduReadHeaderNBO)
 .rom.PDUM_eNPduReadHeaderNBO
                0x00001080       0x4e temp.elf
                0x00001080                _PDUM_eNPduReadHeaderNBO

.rom.PDUM_eNPduAppendDataNBO
                0x000010ce       0x5c
 *(.text.PDUM_eNPduAppendDataNBO)
 .rom.PDUM_eNPduAppendDataNBO
                0x000010ce       0x5c temp.elf
                0x000010ce                _PDUM_eNPduAppendDataNBO

.rom.PDUM_eNPduAppendFooterNBO
 *(.text.PDUM_eNPduAppendFooterNBO)

.rom.PDUM_eNPduPrependHeaderNBO
                0x00001186       0x5a
 *(.text.PDUM_eNPduPrependHeaderNBO)
 .rom.PDUM_eNPduPrependHeaderNBO
                0x00001186       0x5a temp.elf
                0x00001186                _PDUM_eNPduPrependHeaderNBO

.rom.PDUM_eNPduAllocate
                0x000011e0       0x4e
 *(.text.PDUM_eNPduAllocate)
 .rom.PDUM_eNPduAllocate
                0x000011e0       0x4e temp.elf
                0x000011e0                _PDUM_eNPduAllocate

.rom.PDUM_eNPduInitDescending
                0x0000122e       0x1b
 *(.text.PDUM_eNPduInitDescending)
 .rom.PDUM_eNPduInitDescending
                0x0000122e       0x1b temp.elf
                0x0000122e                _PDUM_eNPduInitDescending

.rom.PDUM_eNPduInitAscending
                0x00001249       0x20
 *(.text.PDUM_eNPduInitAscending)
 .rom.PDUM_eNPduInitAscending
                0x00001249       0x20 temp.elf
                0x00001249                _PDUM_eNPduInitAscending

.rom.PDUM_eNPduFree
                0x00001269       0x67
 *(.text.PDUM_eNPduFree)
 .rom.PDUM_eNPduFree
                0x00001269       0x67 temp.elf
                0x00001269                _PDUM_eNPduFree

.rom.PDUM_eNPduClaimHeader
                0x000012d0       0x29
 *(.text.PDUM_eNPduClaimHeader)
 .rom.PDUM_eNPduClaimHeader
                0x000012d0       0x29 temp.elf
                0x000012d0                _PDUM_eNPduClaimHeader

.rom.PDUM_eNPduClaimFooter
                0x000012f9       0x26
 *(.text.PDUM_eNPduClaimFooter)
 .rom.PDUM_eNPduClaimFooter
                0x000012f9       0x26 temp.elf
                0x000012f9                _PDUM_eNPduClaimFooter

.rom.PDUM_eNPduClaimData
                0x0000131f       0x61
 *(.text.PDUM_eNPduClaimData)
 .rom.PDUM_eNPduClaimData
                0x0000131f       0x61 temp.elf
                0x0000131f                _PDUM_eNPduClaimData

.rom.PDUM_eNPduAscend
                0x00001380       0x24
 *(.text.PDUM_eNPduAscend)
 .rom.PDUM_eNPduAscend
                0x00001380       0x24 temp.elf
                0x00001380                _PDUM_eNPduAscend

.rom.PDUM_eNPduDescend
                0x000013a4       0x24
 *(.text.PDUM_eNPduDescend)
 .rom.PDUM_eNPduDescend
                0x000013a4       0x24 temp.elf
                0x000013a4                _PDUM_eNPduDescend

.rom.PDUM_eNPduWriteToBuffer
 *(.text.PDUM_eNPduWriteToBuffer)

.rom.PDUM_eNPduWriteFromBuffer
                0x00001413       0x29
 *(.text.PDUM_eNPduWriteFromBuffer)
 .rom.PDUM_eNPduWriteFromBuffer
                0x00001413       0x29 temp.elf
                0x00001413                _PDUM_eNPduWriteFromBuffer

.rom.PDUM_eNPduWriteDataToBuffer
                0x0000143c       0x61
 *(.text.PDUM_eNPduWriteDataToBuffer)
 .rom.PDUM_eNPduWriteDataToBuffer
                0x0000143c       0x61 temp.elf
                0x0000143c                _PDUM_eNPduWriteDataToBuffer

.rom.PDUM_eNPduWriteDataFromBuffer
                0x0000149d       0x5d
 *(.text.PDUM_eNPduWriteDataFromBuffer)
 .rom.PDUM_eNPduWriteDataFromBuffer
                0x0000149d       0x5d temp.elf
                0x0000149d                _PDUM_eNPduWriteDataFromBuffer

.rom.pdum_vNPduInit
                0x000014fa       0x3d
 *(.text.pdum_vNPduInit)
 .rom.pdum_vNPduInit
                0x000014fa       0x3d temp.elf
                0x000014fa                _pdum_vNPduInit

.rom.PDUM_pvAPduInstanceGetPayload
                0x00001537        0xd
 *(.text.PDUM_pvAPduInstanceGetPayload)
 .rom.PDUM_pvAPduInstanceGetPayload
                0x00001537        0xd temp.elf
                0x00001537                _PDUM_pvAPduInstanceGetPayload

.rom.PDUM_u16APduInstanceGetPayloadSize
                0x00001567        0xd
 *(.text.PDUM_u16APduInstanceGetPayloadSize)
 .rom.PDUM_u16APduInstanceGetPayloadSize
                0x00001567        0xd temp.elf
                0x00001567                _PDUM_u16APduInstanceGetPayloadSize

.rom.PDUM_eAPduInstanceSetPayloadSize
                0x00001574       0x28
 *(.text.PDUM_eAPduInstanceSetPayloadSize)
 .rom.PDUM_eAPduInstanceSetPayloadSize
                0x00001574       0x28 temp.elf
                0x00001574                _PDUM_eAPduInstanceSetPayloadSize

.rom.PDUM_u16APduGetSize
                0x0000159c        0xd
 *(.text.PDUM_u16APduGetSize)
 .rom.PDUM_u16APduGetSize
                0x0000159c        0xd temp.elf
                0x0000159c                _PDUM_u16APduGetSize

.rom.PDUM_u16APduInstanceWriteStrNBO
                0x000015a9       0x4e
 *(.text.PDUM_u16APduInstanceWriteStrNBO)
 .rom.PDUM_u16APduInstanceWriteStrNBO
                0x000015a9       0x4e temp.elf
                0x000015a9                _PDUM_u16APduInstanceWriteStrNBO

.rom.PDUM_u16APduInstanceWriteNBO
                0x000015f7       0x5c
 *(.text.PDUM_u16APduInstanceWriteNBO)
 .rom.PDUM_u16APduInstanceWriteNBO
                0x000015f7       0x5c temp.elf
                0x000015f7                _PDUM_u16APduInstanceWriteNBO

.rom.PDUM_u16APduInstanceReadNBO
                0x00001653       0x45
 *(.text.PDUM_u16APduInstanceReadNBO)
 .rom.PDUM_u16APduInstanceReadNBO
                0x00001653       0x45 temp.elf
                0x00001653                _PDUM_u16APduInstanceReadNBO

.rom.PDUM_hAPduAllocateAPduInstance
                0x00001698       0x54
 *(.text.PDUM_hAPduAllocateAPduInstance)
 .rom.PDUM_hAPduAllocateAPduInstance
                0x00001698       0x54 temp.elf
                0x00001698                _PDUM_hAPduAllocateAPduInstance

.rom.PDUM_eAPduFreeAPduInstance
                0x000016ec       0x78
 *(.text.PDUM_eAPduFreeAPduInstance)
 .rom.PDUM_eAPduFreeAPduInstance
                0x000016ec       0x78 temp.elf
                0x000016ec                _PDUM_eAPduFreeAPduInstance

.rom.pdum_vAPduInit
                0x00001764       0x63
 *(.text.pdum_vAPduInit)
 .rom.pdum_vAPduInit
                0x00001764       0x63 temp.elf
                0x00001764                _pdum_vAPduInit

.rom.PDUM_u16SizeNBO
                0x000017c7       0x5f
 *(.text.PDUM_u16SizeNBO)
 .rom.PDUM_u16SizeNBO
                0x000017c7       0x5f temp.elf
                0x000017c7                _PDUM_u16SizeNBO

.rom.pdum_u16WriteNBO
                0x00001826      0x120
 *(.text.pdum_u16WriteNBO)
 .rom.pdum_u16WriteNBO
                0x00001826      0x120 temp.elf
                0x00001826                _pdum_u16WriteNBO

.rom.pdum_u16WriteStrNBO
                0x00001946      0x128
 *(.text.pdum_u16WriteStrNBO)
 .rom.pdum_u16WriteStrNBO
                0x00001946      0x128 temp.elf
                0x00001946                _pdum_u16WriteStrNBO

.rom.pdum_u16ReadNBO
                0x00001a6e      0x157
 *(.text.pdum_u16ReadNBO)
 .rom.pdum_u16ReadNBO
                0x00001a6e      0x157 temp.elf
                0x00001a6e                _pdum_u16ReadNBO

.rom.vDumpPayload
 *(.text.vDumpPayload)

.rom.PDUM_vDBGPrintNPdu
 *(.text.PDUM_vDBGPrintNPdu)
                0x04000084                _pdum_g_aprPatchTable = 0x4000084

.rom_workspace.pwrm.o.s_bWakeTimerActive
                0x04000340        0x1
 *pwrm.o(.bss.s_bWakeTimerActive)
 .rom_workspace.pwrm.o.s_bWakeTimerActive
                0x04000340        0x1 temp.elf

.rom_workspace.pwrm.o.s_ePowerMode
                0x04000344        0x4
 *pwrm.o(.bss.s_ePowerMode)
 .rom_workspace.pwrm.o.s_ePowerMode
                0x04000344        0x4 temp.elf

.rom_workspace.pwrm.o.s_psPreSleepCallbacks
                0x04000348        0x4
 *pwrm.o(.bss.s_psPreSleepCallbacks)
 .rom_workspace.pwrm.o.s_psPreSleepCallbacks
                0x04000348        0x4 temp.elf

.rom_workspace.pwrm.o.u32CalibrationValue
                0x04000374        0x4
 *pwrm.o(.bss.u32CalibrationValue)
 .rom_workspace.pwrm.o.u32CalibrationValue
                0x04000374        0x4 temp.elf

.rom_workspace.pwrm.o.psNextWake
                0x04000384        0x4
 *pwrm.o(.bss.psNextWake)
 .rom_workspace.pwrm.o.psNextWake
                0x04000384        0x4 temp.elf

.rom.pwrm_vRegisterPreSleepCallback
 *(.text.pwrm_vRegisterPreSleepCallback)

.rom.PWRM_vSetupDozeMonitor
 *(.text.PWRM_vSetupDozeMonitor)

.rom.PWRM_vResetDozeTimers
 *(.text.PWRM_vResetDozeTimers)

.rom.PWRM_u32GetDozeTime
 *(.text.PWRM_u32GetDozeTime)

.rom.PWRM_u32GetDozeElapsedTime
 *(.text.PWRM_u32GetDozeElapsedTime)

.rom.PWRM_vWakeInterruptCallback
                0x0001d8e5       0x52
 *(.text.PWRM_vWakeInterruptCallback)
 .rom.PWRM_vWakeInterruptCallback
                0x0001d8e5       0x52 temp.elf
                0x0001d8e5                _PWRM_vWakeInterruptCallback

.rom.PWRM_eScheduleActivity
 *(.text.PWRM_eScheduleActivity)
                0x04000380                pwrm_psWakeupCallbacks = 0x4000380

.rom_workspace.dbg.o.vResetFn
                0x04000354        0x4
 *dbg.o(.bss.vResetFn)
 .rom_workspace.dbg.o.vResetFn
                0x04000354        0x4 temp.elf

.rom_workspace.dbg.o.vPutchFn
                0x04000358        0x4
 *dbg.o(.bss.vPutchFn)
 .rom_workspace.dbg.o.vPutchFn
                0x04000358        0x4 temp.elf

.rom_workspace.dbg.o.vFlushFn
                0x0400035c        0x4
 *dbg.o(.bss.vFlushFn)
 .rom_workspace.dbg.o.vFlushFn
                0x0400035c        0x4 temp.elf

.rom_workspace.dbg.o.vStopFn
                0x04000360        0x4
 *dbg.o(.bss.vStopFn)
 .rom_workspace.dbg.o.vStopFn
                0x04000360        0x4 temp.elf

.rom_workspace.dbg_uart.o.u8AhiUart
                0x04000364        0x1
 *dbg_uart.o(.bss.u8AhiUart)
 .rom_workspace.dbg_uart.o.u8AhiUart
                0x04000364        0x1 temp.elf

.rom_workspace.dbg.o.bIsNewline
                0x0400010c        0x1
 *dbg.o(.data.bIsNewline)
 .rom_workspace.dbg.o.bIsNewline
                0x0400010c        0x1 temp.elf

.rom_workspace.dbg_uart.o.u8AhiBaudRate
                0x0400010d        0x1
 *dbg_uart.o(.data.u8AhiBaudRate)
 .rom_workspace.dbg_uart.o.u8AhiBaudRate
                0x0400010d        0x1 temp.elf

.rom.DBG_vReset
                0x00006eb4       0x12
 *(.text.DBG_vReset)
 .rom.DBG_vReset
                0x00006eb4       0x12 temp.elf
                0x00006eb4                _DBG_vReset

.rom.vWriteUIntToBuffer
                0x00006ef3       0xd8
 *(.text.vWriteUIntToBuffer)
 .rom.vWriteUIntToBuffer
                0x00006ef3       0xd8 temp.elf

.rom.vNewLine   0x00006fcb       0x8a
 *(.text.vNewLine)
 .rom.vNewLine  0x00006fcb       0x8a temp.elf

.rom.dbg_vAssertImpl
 *(.text.dbg_vAssertImpl)

.rom.DBG_vUartFlush
                0x00007538       0x18
 *(.text.DBG_vUartFlush)
 .rom.DBG_vUartFlush
                0x00007538       0x18 temp.elf
                0x00007538                _DBG_vUartFlush

.rom.DBG_vUartPutch
                0x00007550       0x29
 *(.text.DBG_vUartPutch)
 .rom.DBG_vUartPutch
                0x00007550       0x29 temp.elf
                0x00007550                _DBG_vUartPutch

.rom.DBG_vUartInitHardware
                0x00007579       0x44
 *(.text.DBG_vUartInitHardware)
 .rom.DBG_vUartInitHardware
                0x00007579       0x44 temp.elf
                0x00007579                _DBG_vUartInitHardware
                0x04000110                _dbg_g_aprPatchTable = 0x4000110

.rom_workspace.zps_mac.o.s_hMacMutex
                0x04000330        0x4
 *zps_mac.o(.bss.s_hMacMutex)
 .rom_workspace.zps_mac.o.s_hMacMutex
                0x04000330        0x4 temp.elf

.rom_workspace.zps_mac.o.s_sDcfmIndMgr
                0x04000334        0xc
 *zps_mac.o(.bss.s_sDcfmIndMgr)
 .rom_workspace.zps_mac.o.s_sDcfmIndMgr
                0x04000334        0xc temp.elf

.rom_workspace.zps_mac.o.prHandleMlmeReqRsp
                0x040001ac        0x4
 *zps_mac.o(.data.prHandleMlmeReqRsp)
 .rom_workspace.zps_mac.o.prHandleMlmeReqRsp
                0x040001ac        0x4 temp.elf

.rom_workspace.zps_mac.o.prHandleMcpsReqRsp
                0x040001b0        0x4
 *zps_mac.o(.data.prHandleMcpsReqRsp)
 .rom_workspace.zps_mac.o.prHandleMcpsReqRsp
                0x040001b0        0x4 temp.elf

.rom.MAC_vRegisterMcpsVsDcfmIndCallbacks
                0x00001f5c       0x15
 *(.text.MAC_vRegisterMcpsVsDcfmIndCallbacks)
 .rom.MAC_vRegisterMcpsVsDcfmIndCallbacks
                0x00001f5c       0x15 temp.elf
                0x00001f5c                _MAC_vRegisterMcpsVsDcfmIndCallbacks

.rom.MAC_vHandleMlmeVsReqRsp
                0x0000202f       0x3c
 *(.text.MAC_vHandleMlmeVsReqRsp)
 .rom.MAC_vHandleMlmeVsReqRsp
                0x0000202f       0x3c temp.elf
                0x0000202f                _MAC_vHandleMlmeVsReqRsp

.rom.MAC_vHandleMcpsVsReqRsp
                0x0000206b       0xfa
 *(.text.MAC_vHandleMcpsVsReqRsp)
 .rom.MAC_vHandleMcpsVsReqRsp
                0x0000206b       0xfa temp.elf
                0x0000206b                _MAC_vHandleMcpsVsReqRsp

.rom.MAC_vSetMutex
                0x00002165       0x18
 *(.text.MAC_vSetMutex)
 .rom.MAC_vSetMutex
                0x00002165       0x18 temp.elf
                0x00002165                _MAC_vSetMutex
                0x040001b4                _zpsmac_g_aprPatchTable = 0x40001b4

.rom.u32NumberOfEmptyMasksInGroupTable
 *(.text.u32NumberOfEmptyMasksInGroupTable)

.rom.vSetAllEndpointBitmasksForGroup
 *(.text.vSetAllEndpointBitmasksForGroup)

.rom.eHandleAddEntryToGroupTable
 *(.text.eHandleAddEntryToGroupTable)

.rom.zps_vNwkLibU16ToPayload
                0x00003c0e        0xc
 *(.text.zps_vNwkLibU16ToPayload)
 .rom.zps_vNwkLibU16ToPayload
                0x00003c0e        0xc temp.elf
                0x00003c0e                _zps_vNwkLibU16ToPayload

.rom.zps_vNwkLibU32ToPayload
                0x00003c1a       0x18
 *(.text.zps_vNwkLibU32ToPayload)
 .rom.zps_vNwkLibU32ToPayload
                0x00003c1a       0x18 temp.elf
                0x00003c1a                _zps_vNwkLibU32ToPayload

.rom.zps_vNwkLibU64ToPayload
                0x00003c32       0x3f
 *(.text.zps_vNwkLibU64ToPayload)
 .rom.zps_vNwkLibU64ToPayload
                0x00003c32       0x3f temp.elf
                0x00003c32                _zps_vNwkLibU64ToPayload

.rom.zps_u16NwkLibFromPayload
                0x00003cf1        0xf
 *(.text.zps_u16NwkLibFromPayload)
 .rom.zps_u16NwkLibFromPayload
                0x00003cf1        0xf temp.elf
                0x00003cf1                _zps_u16NwkLibFromPayload

.rom.zps_u32NwkLibFromPayload
 *(.text.zps_u32NwkLibFromPayload)

.rom.zps_u64NwkLibFromPayload
                0x00003d23       0x7d
 *(.text.zps_u64NwkLibFromPayload)
 .rom.zps_u64NwkLibFromPayload
                0x00003d23       0x7d temp.elf
                0x00003d23                _zps_u64NwkLibFromPayload

.rom.zps_vNwkSlistInit
                0x000068f6        0x9
 *(.text.zps_vNwkSlistInit)
 .rom.zps_vNwkSlistInit
                0x000068f6        0x9 temp.elf
                0x000068f6                _zps_vNwkSlistInit

.rom.zps_vNwkSlistAddToHead
                0x000068ff       0x17
 *(.text.zps_vNwkSlistAddToHead)
 .rom.zps_vNwkSlistAddToHead
                0x000068ff       0x17 temp.elf
                0x000068ff                _zps_vNwkSlistAddToHead

.rom.zps_vNwkSlistAddToTail
                0x00006916       0x1a
 *(.text.zps_vNwkSlistAddToTail)
 .rom.zps_vNwkSlistAddToTail
                0x00006916       0x1a temp.elf
                0x00006916                _zps_vNwkSlistAddToTail

.rom.zps_vNwkSlistInsertAfter
                0x00006930       0x19
 *(.text.zps_vNwkSlistInsertAfter)
 .rom.zps_vNwkSlistInsertAfter
                0x00006930       0x19 temp.elf
                0x00006930                _zps_vNwkSlistInsertAfter

.rom.zps_psNwkSlistRemoveFromHead
                0x00006949       0x17
 *(.text.zps_psNwkSlistRemoveFromHead)
 .rom.zps_psNwkSlistRemoveFromHead
                0x00006949       0x17 temp.elf
                0x00006949                _zps_psNwkSlistRemoveFromHead

.rom.zps_psNwkSlistRemove
                0x00006960       0x3c
 *(.text.zps_psNwkSlistRemove)
 .rom.zps_psNwkSlistRemove
                0x00006960       0x3c temp.elf
                0x00006960                _zps_psNwkSlistRemove

.rom.zps_vNwkSlistMakeLimboNode
                0x0000699c        0x8
 *(.text.zps_vNwkSlistMakeLimboNode)
 .rom.zps_vNwkSlistMakeLimboNode
                0x0000699c        0x8 temp.elf
                0x0000699c                _zps_vNwkSlistMakeLimboNode

.rom.zps_bNwkSlistIsLimboNode
                0x000069a4       0x11
 *(.text.zps_bNwkSlistIsLimboNode)
 .rom.zps_bNwkSlistIsLimboNode
                0x000069a4       0x11 temp.elf
                0x000069a4                _zps_bNwkSlistIsLimboNode

.flashheader    0x04000cd0       0x24
                0x04000cd0                _flash_beg = <code 342> (.)
                0x04000cd0        0x4 LONG 0xe0e0
                0x04000cd4        0x4 LONG 0x4000d00 <code 342> (_data_beg)
                0x04000cd8        0x4 LONG 0x14ffc _data_len
                0x04000cdc        0x4 LONG 0x1060035
                0x04000ce0        0x4 LONG 0x0
                0x04000ce4        0x4 LONG 0x4015cfc <code 342> (_bss_beg)
                0x04000ce8        0x4 LONG 0x3f28 _bss_len
                0x04000cec        0x4 LONG 0x400500c <code 342> (_AppWarmStart)
                0x04000cf0        0x4 LONG 0x4004fc8 <code 342> (_AppColdStart)

.oad            0x04000cf4        0xc
                0x04000cf4        0x4 LONG 0xffffffff
                0x04000cf8        0x4 LONG 0xffffffff
                0x04000cfc        0x4 LONG 0xf0f0f0f0

.mac            0x04000d00       0x20
                0x04000d00                _enc_start = <code 342> (.)
                0x04000d00                _data_beg = <code 342> (.)
                0x04000d00        0x4 LONG 0xffffffff
                0x04000d04        0x4 LONG 0xffffffff
                0x04000d08        0x4 LONG 0xffffffff
                0x04000d0c        0x4 LONG 0xffffffff
                0x04000d10                _FlsLinkKey = <code 342> (.)
                0x04000d10        0x4 LONG 0xffffffff
                0x04000d14        0x4 LONG 0xffffffff
                0x04000d18        0x4 LONG 0xffffffff
                0x04000d1c        0x4 LONG 0xffffffff
                0x00000000                _enc_offset = (_enc_start & 0xf)
                [0x00000030]                _enc_start = (_enc_start - _flash_beg)

.heap_location  0x04000d20        0x8
                0x04000d20                _heap_location = .
                0x04000d20        0x4 LONG 0x4019c24 <code 342> (_heap_start)
                0x04000d24        0x4 LONG 0x401ec00 <code 342> (_heap_end)

.rtc_clt        0x04000d28       0x28
                0x04000d28        0x4 LONG 0x0
                0x04000d2c        0x4 LONG 0x0
                0x04000d30        0x4 LONG 0x0
                0x04000d34        0x4 LONG 0x0
                0x04000d38        0x4 LONG 0x0
                0x04000d3c        0x4 LONG 0x0
                0x04000d40        0x4 LONG 0x0
                0x04000d44        0x4 LONG 0x0
                0x04000d48        0x4 LONG 0x0
                0x04000d4c        0x4 LONG 0x0

.ro_se_cert     0x04000d50        0x0
                0x04000d50                _FlsZcCert = <code 342> (.)
 *(.ro_se_cert)

.ro_se_pvKey    0x04000d50        0x0
                0x04000d50                _FlsPrivateKey = <code 342> (.)
 *(.ro_se_pvKey)

.rodata         0x04000d50      0xd02
 *(.rodata*)
 .rodata.s_sNibInitialValues
                0x04000d50       0x1c temp.elf
 .rodata.str1.1
                0x04000d6c       0xc7 temp.elf
                                 0xc8 (size before relaxing)
 *fill*         0x04000e33        0x1 00
 .rodata.g_sKey
                0x04000e34       0x10 temp.elf
 .rodata.str1.1.38
                0x04000e44       0xb2 temp.elf
                                 0xd5 (size before relaxing)
 .rodata.au8Digits.2743
                0x04000ef6        0x3 temp.elf
 .rodata.s_au8Pixel.2326
                0x04000ef9       0x1b temp.elf
 .rodata.s_szTitle.2325
                0x04000f14       0x1c temp.elf
 .rodata.s_au8NodeLcdRow
                0x04000f30        0x4 temp.elf
 .rodata.s_au8NodeLcdCol
                0x04000f34        0x4 temp.elf
 .rodata.s_apcNodeNameList
                0x04000f38       0x10 temp.elf
 .rodata.s_au8LabelPos.2460
                0x04000f48        0x3 temp.elf
 *fill*         0x04000f4b        0x1 00
 .rodata.s_apcSensorLabel.2459
                0x04000f4c        0xc temp.elf
 .rodata.au16LineData.2687
                0x04000f58       0x1c temp.elf
 .rodata.str1.1.43
                0x04000f74       0xe3 temp.elf
                                 0xe4 (size before relaxing)
 .rodata.s_u8ButtonDIOLine
                0x04001057        0x4 temp.elf
 .rodata.str1.1.52
                0x00000000       0xe3 temp.elf
                                  0x2 (size before relaxing)
 .rodata.str1.1.57
                0x0400105b      0x3d9 temp.elf
                                0x3df (size before relaxing)
 .rodata.str1.1.62
                0x04001434       0x64 temp.elf
                                 0x68 (size before relaxing)
 .rodata.C.0.2795
                0x04001498       0x12 temp.elf
 *fill*         0x040014aa        0x2 00
 .rodata.apsQueueList
                0x040014ac        0x8 temp.elf
 .rodata.str1.1.71
                0x00000000        0x4 temp.elf
 .rodata.str1.1.129
                0x040014b4       0x17 temp.elf
 .rodata.str1.1.134
                0x040014cb       0x19 temp.elf
                                 0x21 (size before relaxing)
 .rodata.str1.1.139
                0x00000000       0x19 temp.elf
                                 0x2c (size before relaxing)
 .rodata.str1.1.144
                0x040014e4        0x3 temp.elf
                                  0x5 (size before relaxing)
 .rodata.str1.1.153
                0x040014e7       0x5c temp.elf
 .rodata.str1.1.166
                0x04001543       0x1f temp.elf
                                 0x2f (size before relaxing)
 .rodata.str1.1.171
                0x04001562        0x6 temp.elf
                                 0x12 (size before relaxing)
 .rodata.str1.1.176
                0x00000000        0x6 temp.elf
 .rodata.str1.1.181
                0x00000000        0x6 temp.elf
 .rodata.str1.1.186
                0x00000000        0x6 temp.elf
                                  0x8 (size before relaxing)
 .rodata.str1.1.191
                0x00000000        0x4 temp.elf
 .rodata.str1.1.196
                0x00000000        0x6 temp.elf
                                  0x5 (size before relaxing)
 .rodata.str1.1.201
                0x00000000        0x4 temp.elf
 .rodata.str1.1.206
                0x00000000        0x4 temp.elf
 .rodata.str1.1.211
                0x00000000        0x6 temp.elf
                                  0x4 (size before relaxing)
 .rodata.str1.1.216
                0x00000000        0x5 temp.elf
 .rodata.str1.1.221
                0x00000000        0x4 temp.elf
 .rodata.str1.1.226
                0x00000000        0x2 temp.elf
 .rodata.str1.1.231
                0x00000000        0x2 temp.elf
 .rodata.str1.1.236
                0x00000000        0x5 temp.elf
 .rodata.str1.1.241
                0x04001568        0xd temp.elf
                                 0x11 (size before relaxing)
 .rodata.str1.1.250
                0x04001575        0xa temp.elf
                                 0x10 (size before relaxing)
 .rodata.str1.1.255
                0x00000000        0x3 temp.elf
 .rodata.str1.1.260
                0x0400157f        0x5 temp.elf
                                 0x10 (size before relaxing)
 .rodata.str1.1.265
                0x00000000       0x10 temp.elf
 .rodata.str1.1.270
                0x04001584        0x9 temp.elf
                                  0xd (size before relaxing)
 .rodata.str1.1.275
                0x00000000        0x9 temp.elf
                                  0x8 (size before relaxing)
 .rodata.str1.1.280
                0x00000000        0xf temp.elf
 .rodata.str1.1.285
                0x00000000        0x7 temp.elf
 .rodata.str1.1.290
                0x00000000        0x7 temp.elf
 .rodata.str1.1.295
                0x00000000        0x4 temp.elf
 .rodata.str1.1.304
                0x0400158d        0xe temp.elf
 .rodata.str1.1.309
                0x0400159b        0x4 temp.elf
                                  0xb (size before relaxing)
 .rodata.str1.1.318
                0x00000000        0x4 temp.elf
                                  0xf (size before relaxing)
 .rodata.str1.1.338
                0x00000000        0x4 temp.elf
                                  0x8 (size before relaxing)
 *fill*         0x0400159f        0x1 00
 .rodata.s_apsStSceTbl
                0x040015a0       0x14 temp.elf
 .rodata.s_apsStSmeTbl
                0x040015b4       0x14 temp.elf
 .rodata.str1.1.347
                0x040015c8       0x41 temp.elf
 *fill*         0x04001609        0x3 00
 .rodata.atCfmSize
                0x0400160c       0x34 temp.elf
 .rodata.str1.1.364
                0x04001640        0xd temp.elf
                                 0x10 (size before relaxing)
 *fill*         0x0400164d        0x3 00
 .rodata.pacDoubleByte.5386
                0x04001650        0x4 temp.elf
 .rodata.str1.1.369
                0x04001654        0x8 temp.elf
 .rodata.zps_sActvSmeTbl
                0x0400165c        0xc temp.elf
                0x0400165c                _zps_sActvSmeTbl
 .rodata.zps_sActvSceTbl
                0x04001668        0xc temp.elf
                0x04001668                _zps_sActvSceTbl
 .rodata.s_aeNlmeReqRspToActvStCme
                0x04001674        0xa temp.elf
 *fill*         0x0400167e        0x2 00
 .rodata.s_aprActvStHandleCme
                0x04001680       0x20 temp.elf
 .rodata.s_aeMlmeDcfmIndToActvStSme
                0x040016a0        0xd temp.elf
 *fill*         0x040016ad        0x3 00
 .rodata.s_aprActvStHandleSme
                0x040016b0       0x18 temp.elf
 .rodata.s_atActvStSmeStt
                0x040016c8        0x5 temp.elf
 .rodata.s_aeNwkCmdToActvStSce
                0x040016cd        0xa temp.elf
 *fill*         0x040016d7        0x1 00
 .rodata.s_aprActvStHandleSce
                0x040016d8       0x2c temp.elf
 .rodata.s_atActvStSceStt
                0x04001704        0xa temp.elf
 *fill*         0x0400170e        0x2 00
 .rodata.zps_sDiscSmeTbl
                0x04001710        0xc temp.elf
                0x04001710                _zps_sDiscSmeTbl
 .rodata.s_aeMlmeDcfmIndToDiscStSme
                0x0400171c        0xd temp.elf
 *fill*         0x04001729        0x3 00
 .rodata.s_aprDiscStHandleSme
                0x0400172c       0x1c temp.elf
 .rodata.s_atDiscStSmeStt
                0x04001748        0x8 temp.elf
 .rodata.zps_sFormSmeTbl
                0x04001750        0xc temp.elf
                0x04001750                _zps_sFormSmeTbl
 .rodata.s_aeMlmeDcfmIndToFormStSme
                0x0400175c        0xd temp.elf
 *fill*         0x04001769        0x3 00
 .rodata.s_aprFormStHandleSme
                0x0400176c       0x10 temp.elf
 .rodata.s_atFormStSmeStt
                0x0400177c        0x4 temp.elf
 .rodata.str1.1.400
                0x00000000        0xf temp.elf
 .rodata.au8JitterLUT.4928
                0x04001780        0x5 temp.elf
 .rodata.s_aeNlmeReqRspToIdleStCme
                0x04001785        0xa temp.elf
 *fill*         0x0400178f        0x1 00
 .rodata.s_aprIdleStHandleCme
                0x04001790       0x14 temp.elf
 .rodata.str1.1.409
                0x00000000        0x8 temp.elf
                                  0x7 (size before relaxing)
 .rodata.C.5.5011
                0x040017a4        0x5 temp.elf
 *fill*         0x040017a9        0x3 00
 .rodata.zps_sJoinSmeTbl
                0x040017ac        0xc temp.elf
                0x040017ac                _zps_sJoinSmeTbl
 .rodata.zps_sJoinSceTbl
                0x040017b8        0xc temp.elf
                0x040017b8                _zps_sJoinSceTbl
 .rodata.s_aeMlmeDcfmIndToJoinStSme
                0x040017c4        0xd temp.elf
 *fill*         0x040017d1        0x3 00
 .rodata.s_aprJoinStHandleSme
                0x040017d4       0x10 temp.elf
 .rodata.s_atJoinStSmeStt
                0x040017e4       0x14 temp.elf
 .rodata.s_aeNwkCmdToJoinStSce
                0x040017f8        0xa temp.elf
 *fill*         0x04001802        0x2 00
 .rodata.s_aprJoinStHandleSce
                0x04001804        0x8 temp.elf
 .rodata.s_atJoinStSceStt
                0x0400180c        0x5 temp.elf
 .rodata.str1.1.418
                0x00000000        0x3 temp.elf
 .rodata.str1.1.435
                0x04001811        0x6 temp.elf
                                  0xa (size before relaxing)
 .rodata.str1.1.496
                0x04001817       0x31 temp.elf
                                 0x32 (size before relaxing)
 .rodata.539    0x04001848      0x20a temp.elf
                0x04001848                _au8LcdFontWide

.data           0x04001a58      0xafc
 *(.data*)
 .data.os_Task_zps_taskZPS
                0x04001a58        0xc temp.elf
                0x04001a58                _os_Task_zps_taskZPS
 .data.os_Task_APP_taskScanButtons
                0x04001a64        0xc temp.elf
                0x04001a64                _os_Task_APP_taskScanButtons
 .data.os_Task_APP_taskLogData
                0x04001a70        0xc temp.elf
                0x04001a70                _os_Task_APP_taskLogData
 .data.os_Task_APP_taskControllerNode
                0x04001a7c        0xc temp.elf
                0x04001a7c                _os_Task_APP_taskControllerNode
 .data.os_Task_APP_taskLedControl
                0x04001a88        0xc temp.elf
                0x04001a88                _os_Task_APP_taskLedControl
 .data.os_Task_APP_taskTogglePermitJoining
                0x04001a94        0xc temp.elf
                0x04001a94                _os_Task_APP_taskTogglePermitJoining
 .data.os_Task_APP_StartZBProStack
                0x04001aa0        0xc temp.elf
                0x04001aa0                _os_Task_APP_StartZBProStack
 .data.os_Task_APP_taskDisplayScroll
                0x04001aac        0xc temp.elf
                0x04001aac                _os_Task_APP_taskDisplayScroll
 .data.os_Task_APP_taskDisplayUpdate
                0x04001ab8        0xc temp.elf
                0x04001ab8                _os_Task_APP_taskDisplayUpdate
 .data.os_Mutex_mutexZPS
                0x04001ac4        0x8 temp.elf
                0x04001ac4                _os_Mutex_mutexZPS
 .data.os_Mutex_mutexPDUM
                0x04001acc        0x8 temp.elf
                0x04001acc                _os_Mutex_mutexPDUM
 .data.os_Mutex_mutexMAC
                0x04001ad4        0x8 temp.elf
                0x04001ad4                _os_Mutex_mutexMAC
 .data.os_Mutex_mutexMEDIA
                0x04001adc        0x8 temp.elf
                0x04001adc                _os_Mutex_mutexMEDIA
 .data.os_Message_zps_msgMlmeDcfmInd
                0x04001ae4       0x24 temp.elf
                0x04001ae4                _os_Message_zps_msgMlmeDcfmInd
 .data.os_Message_zps_msgTimeEvents
                0x04001b08       0x24 temp.elf
                0x04001b08                _os_Message_zps_msgTimeEvents
 .data.os_Message_zps_msgMcpsDcfmInd
                0x04001b2c       0x24 temp.elf
                0x04001b2c                _os_Message_zps_msgMcpsDcfmInd
 .data.os_Message_APP_msgZpsEvents
                0x04001b50       0x24 temp.elf
                0x04001b50                _os_Message_APP_msgZpsEvents
 .data.os_Message_APP_msgButtonEvent
                0x04001b74       0x24 temp.elf
                0x04001b74                _os_Message_APP_msgButtonEvent
 .data.os_Message_APP_msgSensorEvent
                0x04001b98       0x24 temp.elf
                0x04001b98                _os_Message_APP_msgSensorEvent
 .data.os_Message_APP_msgLedEvent
                0x04001bbc       0x24 temp.elf
                0x04001bbc                _os_Message_APP_msgLedEvent
 .data.os_HWCounter_APP_cntrTickTimer
                0x04001be0       0x18 temp.elf
                0x04001be0                _os_HWCounter_APP_cntrTickTimer
 .data.os_SWTimer_APP_cntrTickTimer_APP_tmrButtonsScan
                0x04001bf8       0x1c temp.elf
                0x04001bf8                _os_SWTimer_APP_cntrTickTimer_APP_tmrButtonsScan
 .data.os_SWTimer_APP_cntrTickTimer_APP_tmrLogData
                0x04001c14       0x1c temp.elf
                0x04001c14                _os_SWTimer_APP_cntrTickTimer_APP_tmrLogData
 .data.os_SWTimer_APP_cntrTickTimer_APP_tmrDisplaySplashScreen
                0x04001c30       0x1c temp.elf
                0x04001c30                _os_SWTimer_APP_cntrTickTimer_APP_tmrDisplaySplashScreen
 .data.os_SWTimer_APP_cntrTickTimer_APP_tmrJoiningButton
                0x04001c4c       0x1c temp.elf
                0x04001c4c                _os_SWTimer_APP_cntrTickTimer_APP_tmrJoiningButton
 .data.s_asTasks
                0x04001c68       0x24 temp.elf
 .data.s_asAPduPool
                0x04001c8c       0x24 temp.elf
                0x04001c98                _pdum_apduSensorData
                0x04001c8c                _pdum_apduZDP
                0x04001ca4                _pdum_apduLedControl
 .data.s_asapduZDPInstances
                0x04001cb0       0x24 temp.elf
 .data.s_asapduSensorDataInstances
                0x04001cd4       0x30 temp.elf
 .data.s_asapduLedControlInstances
                0x04001d04       0x3c temp.elf
 .data.s_sInitSecKey
                0x04001d40       0x14 temp.elf
                0x04001d40                _s_sInitSecKey
 .data.zps_g_pvApl
                0x04001d54        0x4 temp.elf
                0x04001d54                _zps_g_pvApl
 .data.s_sApl   0x04001d58      0x2b8 temp.elf
 .data.s_sNwkTblSize
                0x04002010        0xc temp.elf
 .data.s_sNwkTbl
                0x0400201c       0x28 temp.elf
 *fill*         0x04002044        0x4 00
 .data.s_sAplAib
                0x04002048       0x30 temp.elf
 .data.s_asAplZdoServers
                0x04002078       0x90 temp.elf
 .data.s_sNodeDescriptor
                0x04002108       0x10 temp.elf
 .data.s_sNodePowerDescriptor
                0x04002118        0x4 temp.elf
 .data.s_asSimpleDescConts
                0x0400211c       0x6c temp.elf
 .data.s_sApsDuplicateTable
                0x04002188       0x10 temp.elf
 .data.s_sApsmeCmdContainer_1
                0x04002198       0x38 temp.elf
 .data.s_sTrustCenterContext
                0x040021d0       0x20 temp.elf
 .data.s_au16Endpoint0InputClusterList
                0x040021f0       0xa6 temp.elf
 .data.s_au16Endpoint0OutputClusterList
                0x04002296       0xa6 temp.elf
 .data.s_ahEndpoint0InputClusterAPdus
                0x0400233c      0x14c temp.elf
 .data.s_au16Endpoint1InputClusterList
                0x04002488        0x4 temp.elf
 .data.s_au8Endpoint1InputClusterDiscFlags
                0x0400248c        0x1 temp.elf
 *fill*         0x0400248d        0x3 00
 .data.s_ahEndpoint1InputClusterAPdus
                0x04002490        0x8 temp.elf
 .data.s_au16Endpoint2InputClusterList
                0x04002498        0x2 temp.elf
 .data.s_au16Endpoint2OutputClusterList
                0x0400249a        0x2 temp.elf
 .data.s_au8Endpoint2InputClusterDiscFlags
                0x0400249c        0x1 temp.elf
 .data.s_au8Endpoint2OutputClusterDiscFlags
                0x0400249d        0x1 temp.elf
 *fill*         0x0400249e        0x2 00
 .data.s_ahEndpoint2InputClusterAPdus
                0x040024a0        0x4 temp.elf
 .data.s_sApsmeCmdContainer_2
                0x040024a4       0x38 temp.elf
 .data.s_sApsmeCmdContainer_3
                0x040024dc       0x38 temp.elf
 .data.s_u8ButtonDebounce
                0x04002514        0x4 temp.elf
 .data.prvNvmWrite
                0x04002518        0x4 temp.elf
 .data.gu8NvmSector
                0x0400251c        0x1 temp.elf
 *fill*         0x0400251d        0x3 00
 .data.gu32NvmSectorSize
                0x04002520        0x4 temp.elf
 .data.gu32NvmSize
                0x04002524        0x4 temp.elf
 .data.prvNvmErase
                0x04002528        0x4 temp.elf
 .data.prvNvmRead
                0x0400252c        0x4 temp.elf
 .data.gu32MinimumFlashSize
                0x04002530        0x4 temp.elf
 .data.prvNvmInitHw
                0x04002534        0x4 temp.elf
 .data.geNvmFlashType
                0x04002538        0x4 temp.elf
 .data.zps_pacNwkFrmStdHdrFmt
                0x0400253c        0x4 temp.elf
                0x0400253c                _zps_pacNwkFrmStdHdrFmt
 .data.zps_pacNwkFrmStdByteFmt
                0x04002540        0x4 temp.elf
                0x04002540                _zps_pacNwkFrmStdByteFmt
 .data.zps_pacNwkFrmStdHalfFmt
                0x04002544        0x4 temp.elf
                0x04002544                _zps_pacNwkFrmStdHalfFmt
 .data.zps_pacNwkFrmStdLongFmt
                0x04002548        0x4 temp.elf
                0x04002548                _zps_pacNwkFrmStdLongFmt
 .data.psTimerList
                0x0400254c        0x4 temp.elf
                0x0400254c                _psTimerList
 .data.aprCCMStarVector
                0x04002550        0x4 temp.elf
                0x04002550                _aprCCMStarVector

.gdb
 libSWDebug_JN5148.a(.text)
 *(.dbgtxt*)

.text           0x04002558    0x137a1
                0x04002558                _text_start = <code 342> (.)
 *(.text*)
 .text.OS_vStart
                0x04002558       0x3e temp.elf
                0x04002558                _OS_vStart
 *fill*         0x04002596        0x2 00
 .text.1        0x04002598      0x178 temp.elf
                0x04002628                _os_PIC_SwVectTable
                0x040025dc                _os_PIC_ChannelPriorities
                0x04002598                _os_ExternalException_W
                0x040025ec                _os_OSMIUM_HwVectTable
 .text.4        0x04002710       0x20 temp.elf
                0x04002710                _IRQ_Alignment
 .text.7        0x04002730       0x20 temp.elf
                0x04002730                _IRQ_BusError
 .text.10       0x04002750       0x20 temp.elf
                0x04002750                _IRQ_IllegalInstruction
 .text.13       0x04002770       0x20 temp.elf
                0x04002770                _IRQ_StackOverflowException
 .text.16       0x04002790       0x20 temp.elf
                0x04002790                _IRQ_UnimplementedModule
 .text.PDUM_vInit
                0x040027b0       0x35 temp.elf
                0x040027b0                _PDUM_vInit
 .text.vZdoServersInit
                0x040027e5      0x14c temp.elf
 .text.os_u32APP_cbGetTickTimer
                0x04002931        0x6 temp.elf
                0x04002931                _os_u32APP_cbGetTickTimer
 .text.os_vAPP_isrTickTimer
                0x04002937       0x39 temp.elf
                0x04002937                _os_vAPP_isrTickTimer
 .text.os_bAPP_cbSetTickTimerCompare
                0x04002970       0x3b temp.elf
                0x04002970                _os_bAPP_cbSetTickTimerCompare
 .text.os_vAPP_cbDisableTickTimer
                0x040029ab       0x30 temp.elf
                0x040029ab                _os_vAPP_cbDisableTickTimer
 .text.os_vAPP_cbEnableTickTimer
                0x040029db       0x45 temp.elf
                0x040029db                _os_vAPP_cbEnableTickTimer
 .text.vAppRegisterPWRMCallbacks
                0x04002a20        0x3 temp.elf
                0x04002a20                _vAppRegisterPWRMCallbacks
 .text.os_vAPP_isrUnimplementedModuleException
                0x04002a23       0x19 temp.elf
                0x04002a23                _os_vAPP_isrUnimplementedModuleException
 .text.vUnclaimedInterrupt
                0x04002a3c       0x19 temp.elf
 .text.os_vAPP_isrStackOverflowException
                0x04002a55       0x1f temp.elf
                0x04002a55                _os_vAPP_isrStackOverflowException
 .text.os_vAPP_isrIllegalInstructionException
                0x04002a74       0x1f temp.elf
                0x04002a74                _os_vAPP_isrIllegalInstructionException
 .text.os_vAPP_isrAlignmentException
                0x04002a93       0x1f temp.elf
                0x04002a93                _os_vAPP_isrAlignmentException
 .text.os_vAPP_isrBusErrorException
                0x04002ab2       0x1f temp.elf
                0x04002ab2                _os_vAPP_isrBusErrorException
 .text.vAppMain
                0x04002ad1       0x79 temp.elf
                0x04002ad1                _vAppMain
 .text.vInitialiseApp
                0x04002b4a       0x47 temp.elf
 .text.APP_u8GetCurrentNode
                0x04002b91        0x9 temp.elf
                0x04002b91                _APP_u8GetCurrentNode
 .text.vStringCopy
                0x04002b9a       0x18 temp.elf
                0x04002b9a                _vStringCopy
 .text.vValToDec
                0x04002bb2       0x51 temp.elf
                0x04002bb2                _vValToDec
 .text.os_vAPP_taskDisplayScroll
                0x04002c03      0x109 temp.elf
                0x04002c03                _os_vAPP_taskDisplayScroll
 .text.vUpdateSplashScreen
                0x04002d0c       0x42 temp.elf
 .text.APP_vDisplayCycleNode
                0x04002d4e       0x2f temp.elf
                0x04002d4e                _APP_vDisplayCycleNode
 .text.vUpdateSensor
                0x04002d7d      0x13d temp.elf
 .text.vUpdateNodeScreen
                0x04002eba       0xa3 temp.elf
 .text.vUpdateNetworkScreen
                0x04002f5d      0x148 temp.elf
 .text.os_vAPP_taskDisplayUpdate
                0x040030a5      0x274 temp.elf
                0x040030a5                _os_vAPP_taskDisplayUpdate
 .text.APP_vDisplayUpdate
                0x04003319       0x20 temp.elf
                0x04003319                _APP_vDisplayUpdate
 .text.APP_vDisplayInitialise
                0x04003339        0x6 temp.elf
                0x04003339                _APP_vDisplayInitialise
 .text.APP_psLogGetSensorNodeHistory
                0x0400333f        0xc temp.elf
                0x0400333f                _APP_psLogGetSensorNodeHistory
 .text.APP_u8LogGetDataStartPos
                0x0400334b        0x9 temp.elf
                0x0400334b                _APP_u8LogGetDataStartPos
 .text.APP_u8GetSensorNodeId
                0x04003354       0x50 temp.elf
                0x04003354                _APP_u8GetSensorNodeId
 .text.APP_u16GetSensorNodeAddr
                0x040033a4        0xf temp.elf
                0x040033a4                _APP_u16GetSensorNodeAddr
 .text.APP_u8ControllerNodeNumDataSensors
                0x040033b3        0x9 temp.elf
                0x040033b3                _APP_u8ControllerNodeNumDataSensors
 .text.os_vAPP_taskLogData
                0x040033bc      0x22b temp.elf
                0x040033bc                _os_vAPP_taskLogData
 .text.APP_vLogStart
                0x040035e7       0x14 temp.elf
                0x040035e7                _APP_vLogStart
 .text.APP_vLogInitialise
                0x040035fb       0x23 temp.elf
                0x040035fb                _APP_vLogInitialise
 .text.APP_bButtonInitialise
                0x0400361e       0x55 temp.elf
                0x0400361e                _APP_bButtonInitialise
 .text.os_vAPP_isrButtonsDioChanged
                0x04003673       0x2e temp.elf
                0x04003673                _os_vAPP_isrButtonsDioChanged
 .text.os_vAPP_taskScanButtons
                0x040036a1       0xc7 temp.elf
                0x040036a1                _os_vAPP_taskScanButtons
 .text.APP_vLedSet
                0x04003768       0x1a temp.elf
                0x04003768                _APP_vLedSet
 .text.os_vAPP_taskLedControl
                0x04003782       0x6d temp.elf
                0x04003782                _os_vAPP_taskLedControl
 .text.APP_vLedsInitialise
                0x040037ef       0x60 temp.elf
                0x040037ef                _APP_vLedsInitialise
 .text.APP_u8ControllerNodeGetCurRadioChan
                0x0400384f        0x9 temp.elf
                0x0400384f                _APP_u8ControllerNodeGetCurRadioChan
 .text.APP_bGetPermitJoining
                0x04003858        0x9 temp.elf
                0x04003858                _APP_bGetPermitJoining
 *fill*         0x04003861        0x3 00
 .text.vCheckStackEvent
                0x04003864      0x170 temp.elf
 .text.os_vAPP_StartZBProStack
                0x040039d4       0x76 temp.elf
                0x040039d4                _os_vAPP_StartZBProStack
 .text.os_vAPP_taskTogglePermitJoining
                0x04003a4a       0x5c temp.elf
                0x04003a4a                _os_vAPP_taskTogglePermitJoining
 .text.vHandleLedControlEvent
                0x04003aa6       0xc6 temp.elf
 .text.os_vAPP_taskControllerNode
                0x04003b6c      0x36c temp.elf
                0x04003b6c                _os_vAPP_taskControllerNode
 .text.APP_vInitialiseControllerNode
                0x04003ed8      0x184 temp.elf
                0x04003ed8                _APP_vInitialiseControllerNode
 .text.APP_vSetPermitJoining
                0x0400405c       0x2c temp.elf
                0x0400405c                _APP_vSetPermitJoining
 .text.vStrArrlen
                0x04004088       0x14 temp.elf
                0x04004088                _vStrArrlen
 .text.vSerial_QData
                0x0400409c       0x5c temp.elf
                0x0400409c                _vSerial_QData
 .text.Rfid_Getprotocol
                0x040040f8       0x52 temp.elf
                0x040040f8                _Rfid_Getprotocol
 .text.vSerial_TxOutput
                0x0400414a       0x3c temp.elf
                0x0400414a                _vSerial_TxOutput
 .text.vSerial_SensorData
                0x04004186       0xa1 temp.elf
                0x04004186                _vSerial_SensorData
 .text.vSerial_Init
                0x04004227       0x22 temp.elf
                0x04004227                _vSerial_Init
 .text.vSerialQ_AddItem
                0x04004249       0x2b temp.elf
                0x04004249                _vSerialQ_AddItem
 .text.u8SerialQ_RemoveItem
                0x04004274       0x2f temp.elf
                0x04004274                _u8SerialQ_RemoveItem
 .text.bSerialQ_Empty
                0x040042a3       0x20 temp.elf
                0x040042a3                _bSerialQ_Empty
 .text.bSerialQ_Full
                0x040042c3       0x28 temp.elf
                0x040042c3                _bSerialQ_Full
 .text.vSerialQ_Init
                0x040042eb       0x1b temp.elf
                0x040042eb                _vSerialQ_Init
 .text.vUART_RxCharISR
                0x04004306        0xa temp.elf
                0x04004306                _vUART_RxCharISR
 .text.vUART_TxCharISR
                0x04004310       0x28 temp.elf
                0x04004310                _vUART_TxCharISR
 .text.UART_vInterrupt
                0x04004338       0x7a temp.elf
 .text.os_vUART_vIsr1
                0x040043b2       0x1c temp.elf
                0x040043b2                _os_vUART_vIsr1
 .text.vUART_StartTx
                0x040043ce       0x34 temp.elf
                0x040043ce                _vUART_StartTx
 .text.vUART_Init
                0x04004402       0xaf temp.elf
                0x04004402                _vUART_Init
 .text.os_vPatchInit
                0x040044b1       0x33 temp.elf
                0x040044b1                _os_vPatchInit
 .text.vDispatch
                0x040044e4       0xcd temp.elf
 .text.os_vControlledInterrupt
                0x040045b1       0x37 temp.elf
                0x040045b1                _os_vControlledInterrupt
 .text.OS_eExpireSWTimers
                0x040045e8       0xb9 temp.elf
                0x040045e8                _OS_eExpireSWTimers
 .text.OS_eStopSWTimer
                0x040046a1       0xd6 temp.elf
                0x040046a1                _OS_eStopSWTimer
 .text.OS_eContinueSWTimer
                0x04004777       0xdb temp.elf
                0x04004777                _OS_eContinueSWTimer
 .text.OS_eStartSWTimer
                0x04004852       0xe3 temp.elf
                0x04004852                _OS_eStartSWTimer
 .text.OS_eCollectMessage
                0x04004935       0x99 temp.elf
                0x04004935                _OS_eCollectMessage
 .text.OS_ePostMessage
                0x040049ce      0x129 temp.elf
                0x040049ce                _OS_ePostMessage
 .text.os_vStart
                0x04004af7      0x148 temp.elf
                0x04004af7                _os_vStart
 .text.OS_eActivateTask
                0x04004c3f       0x91 temp.elf
                0x04004c3f                _OS_eActivateTask
 .text.OS_eExitCriticalSection
                0x04004cd0       0xa1 temp.elf
                0x04004cd0                _OS_eExitCriticalSection
 *fill*         0x04004d71        0x7 00
 .text.77       0x04004d78       0xb0 temp.elf
                0x04004d78                _os_ExternalException_R
                0x04004da0                _os_CFunc_W
                0x04004e00                _os_UnclaimedInterrupt_W
                0x04004de0                _os_UnclaimedException_W
 .text.80       0x04004e28        0x0 temp.elf
                0x04004e28                OS_Version_1v1
 .text.PWRM_vInit
                0x04004e28       0x44 temp.elf
                0x04004e28                _PWRM_vInit
 .text.PWRM_vManagePower
                0x04004e6c      0x114 temp.elf
                0x04004e6c                _PWRM_vManagePower
 .text.87       0x04004f80       0x48 temp.elf
                0x04004fa4                _PWRM_longjmp
                0x04004f80                _setjmp
 .text.AppColdStart
                0x04004fc8       0x44 temp.elf
                0x04004fc8                _AppColdStart
 .text.AppWarmStart
                0x0400500c        0xe temp.elf
                0x0400500c                _AppWarmStart
 .text.bGetBit  0x0400501a       0x3f temp.elf
 .text.vSetBit  0x04005059       0x3b temp.elf
 .text.bIsEnoughSpaceInNvm
                0x04005094       0x2a temp.elf
 .text.vMark    0x040050be       0x23 temp.elf
 .text.vMarkAllBuffers
                0x040050e1       0x1f temp.elf
 .text.u32GetSizeRequiredForChangeset
                0x04005100       0x6d temp.elf
 .text.vNvmNop  0x0400516d        0x9 temp.elf
 .text.PDM_vDeleteRecord
                0x04005176       0xbd temp.elf
                0x04005176                _PDM_vDeleteRecord
 .text.PDM_vDelete
                0x04005233       0x7e temp.elf
                0x04005233                _PDM_vDelete
 .text.vSPIErase
                0x040052b1       0x34 temp.elf
 .text.bWriteChangeset
                0x040052e5      0x325 temp.elf
 .text.vPurge   0x0400560a       0xd4 temp.elf
 .text.PDM_vSaveRecord
                0x040056de       0x81 temp.elf
                0x040056de                _PDM_vSaveRecord
 .text.vLoad    0x0400575f      0x2c5 temp.elf
 .text.vSPIInitHw
                0x04005a24       0x3c temp.elf
 .text.PDM_vInit
                0x04005a60      0x1a9 temp.elf
                0x04005a60                _PDM_vInit
 .text.PDM_eLoadRecord
                0x04005c09      0x129 temp.elf
                0x04005c09                _PDM_eLoadRecord
 .text.vSPIWrite
                0x04005d32       0x47 temp.elf
 .text.vSPIRead
                0x04005d79       0x47 temp.elf
 .text.106      0x04005dc0        0x0 temp.elf
                0x04005dc0                ZPS_APL_Version_1v3
 .text.ovly.ZBAPL."/cygdrive/c/ATLAS_SANDBOX/Components/ZPSAPL_ATLAS_ZPS_APL_1v3_RC3/Source/AF/zps_apl_af.c".752
                0x04005dc0       0x21 temp.elf
 .text.ovly.ZBAPL."/cygdrive/c/ATLAS_SANDBOX/Components/ZPSAPL_ATLAS_ZPS_APL_1v3_RC3/Source/AF/zps_apl_af.c".745
                0x04005de1       0x15 temp.elf
 .text.ovly.ZBAPL."/cygdrive/c/ATLAS_SANDBOX/Components/ZPSAPL_ATLAS_ZPS_APL_1v3_RC3/Source/AF/zps_apl_af.c".98
                0x04005df6       0x84 temp.elf
                0x04005df6                _ZPS_eAplAfInit
 .text.ovly.ZBAPL."/cygdrive/c/ATLAS_SANDBOX/Components/ZPSAPL_ATLAS_ZPS_APL_1v3_RC3/Source/AF/zps_apl_af.c".767
                0x04005e7a       0xad temp.elf
 .text.ovly.ZBAPL."/cygdrive/c/ATLAS_SANDBOX/Components/ZPSAPL_ATLAS_ZPS_APL_1v3_RC3/Source/AF/zps_apl_af.c".382
                0x04005f27       0x3a temp.elf
                0x04005f27                _zps_eAplAfUnicastDataReq
 .text.vFillApduErrorEvent
                0x04005f61       0x30 temp.elf
 .text.vFillDataIndStruct
                0x04005f91       0x58 temp.elf
 .text.zps_vAplApsInitFragReceivePool
                0x04005fe9       0x26 temp.elf
                0x04005fe9                _zps_vAplApsInitFragReceivePool
 .text.vHandleApsdeApsDataAck
                0x0400600f       0xb6 temp.elf
                0x0400600f                _vHandleApsdeApsDataAck
 .text.zps_vHandleApsdeDataFragIndNotSupported
                0x040060c5       0x86 temp.elf
                0x040060c5                _zps_vHandleApsdeDataFragIndNotSupported
 .text.vPostToEndpoint
                0x0400614b      0x1a8 temp.elf
 .text.zps_vAplAfHandleApsdeDcfmInd
                0x040062f3      0x183 temp.elf
                0x040062f3                _zps_vAplAfHandleApsdeDcfmInd
 .text.zps_vAplAfPostEvent
                0x04006476       0x42 temp.elf
                0x04006476                _zps_vAplAfPostEvent
 .text.zps_vAplAfTaskInit
                0x040064b8       0x62 temp.elf
                0x040064b8                _zps_vAplAfTaskInit
 .text.vPostNlmeDcfmInd
                0x0400651a        0x6 temp.elf
 .text.os_vzps_taskZPS
                0x04006520       0xd8 temp.elf
                0x04006520                _os_vzps_taskZPS
 .text.psGetApsdeBuf
                0x040065f8        0x6 temp.elf
 .text.vPostApsdeDcfmInd
                0x040065fe        0x6 temp.elf
 .text.psGetApsmeBuf
                0x04006604        0x9 temp.elf
 .text.vPostApsmeDcfmInd
                0x0400660d        0x6 temp.elf
 .text.psGetNldeBuf
                0x04006613        0xa temp.elf
 .text.vPostNldeDcfmInd
                0x0400661d        0x6 temp.elf
 .text.psGetNlmeBuf
                0x04006623        0xa temp.elf
 .text.zps_vAplAfIsrInit
                0x0400662d       0x57 temp.elf
                0x0400662d                _zps_vAplAfIsrInit
 .text.os_vzps_isrMAC
                0x04006684       0x39 temp.elf
                0x04006684                _os_vzps_isrMAC
 .text.zps_vAplAfPostTimerEvent
                0x040066bd       0x35 temp.elf
                0x040066bd                _zps_vAplAfPostTimerEvent
 .text.psGetMcpsBuf
                0x040066f2        0x9 temp.elf
 .text.vPostMcpsDcfmInd
                0x040066fb        0x6 temp.elf
 .text.psGetMlmeBuf
                0x04006701        0x9 temp.elf
 .text.vPostMlmeDcfmInd
                0x0400670a       0x2f temp.elf
 .text.psGetVsMcpsBuf
                0x04006739        0x9 temp.elf
 .text.vPostVsMcpsDcfmInd
                0x04006742       0x44 temp.elf
 .text.zps_vAplApsInitSyncMsgPool
                0x04006786       0x2e temp.elf
                0x04006786                _zps_vAplApsInitSyncMsgPool
 .text.zps_u8AplApsFreeMsgHandle
                0x040067b4       0x56 temp.elf
                0x040067b4                _zps_u8AplApsFreeMsgHandle
 .text.zps_u8AplApsGetMsgHandle
                0x0400680a       0x21 temp.elf
                0x0400680a                _zps_u8AplApsGetMsgHandle
 .text.u8AllocateMsgHandle
                0x0400682b       0x40 temp.elf
 .text.zps_vAplApsIncrementAndReturnSeqNum
                0x0400686b       0x14 temp.elf
 .text.ZPS_vAplRegisterApsdeDcfmIndCallbacks
                0x0400687f        0x9 temp.elf
                0x0400687f                _ZPS_vAplRegisterApsdeDcfmIndCallbacks
 .text.zps_vAplApsFillAndPostApsAck
                0x04006888       0x60 temp.elf
                0x04006888                _zps_vAplApsFillAndPostApsAck
 .text.zps_vAplApsInitDcfmPool
                0x040068e8       0x20 temp.elf
                0x040068e8                _zps_vAplApsInitDcfmPool
 .text.zps_psApsApsAllocateDcfmRecord
                0x04006908       0x23 temp.elf
                0x04006908                _zps_psApsApsAllocateDcfmRecord
 .text.zps_vApsApsFreeDcfmRecord
                0x0400692b        0x6 temp.elf
                0x0400692b                _zps_vApsApsFreeDcfmRecord
 .text.zps_u8AplApsGetNextDcfmHandle
                0x04006931       0x19 temp.elf
                0x04006931                _zps_u8AplApsGetNextDcfmHandle
 .text.zps_u8AplApsTryFragmentation
                0x0400694a       0x3f temp.elf
 .text.zps_vAplApsInitFragTransmitPool
                0x04006989       0x24 temp.elf
                0x04006989                _zps_vAplApsInitFragTransmitPool
 .text.zps_vAplApsCheckAndStartPollTimer
                0x040069ad       0x62 temp.elf
                0x040069ad                _zps_vAplApsCheckAndStartPollTimer
 .text.zps_vAplApsStopPollTimer
                0x04006a0f       0x82 temp.elf
                0x04006a0f                _zps_vAplApsStopPollTimer
 .text.zps_vAplApsFillNldeAndDescend
                0x04006a91       0x37 temp.elf
                0x04006a91                _zps_vAplApsFillNldeAndDescend
 .text.eUnfragmentedUnicastTransmission
                0x04006ac8      0x221 temp.elf
 .text.zps_u8AplApsConstructAndPostLoopBackDataInd
                0x04006ce9       0xf4 temp.elf
 .text.u8PostUnicastMsgToNHLE
                0x04006ddd       0x6e temp.elf
 .text.eGroupAddressTransmission
                0x04006e4b      0x146 temp.elf
 .text.vAckTimeOutHandler
                0x04006f91       0xbe temp.elf
                0x04006f91                _vAckTimeOutHandler
 .text.zps_psApsApsGetDcfmRecord
                0x0400704f       0x27 temp.elf
                0x0400704f                _zps_psApsApsGetDcfmRecord
 .text.zps_vAplApsPollTimer
                0x04007076       0x67 temp.elf
                0x04007076                _zps_vAplApsPollTimer
 .text.ZPS_vAplHandleApsdeReqRsp
                0x040070dd      0x594 temp.elf
                0x040070dd                _ZPS_vAplHandleApsdeReqRsp
 .text.ZPS_vAplRegisterApsmeDcfmIndCallbacks
                0x04007671        0x9 temp.elf
                0x04007671                _ZPS_vAplRegisterApsmeDcfmIndCallbacks
 .text.ovly.ZBAPL."/cygdrive/c/ATLAS_SANDBOX/Components/ZPSAPL_ATLAS_ZPS_APL_1v3_RC3/Source/APS/zps_apl_apsme.c".1300
                0x0400767a       0x11 temp.elf
                0x0400767a                _zps_psAplApsmeCmdMgrAllocate
 .text.ovly.ZBAPL."/cygdrive/c/ATLAS_SANDBOX/Components/ZPSAPL_ATLAS_ZPS_APL_1v3_RC3/Source/APS/zps_apl_apsme.c".1327
                0x0400768b        0xf temp.elf
                0x0400768b                _zps_vAplApsmeCmdMgrFree
 .text.ovly.ZBAPL."/cygdrive/c/ATLAS_SANDBOX/Components/ZPSAPL_ATLAS_ZPS_APL_1v3_RC3/Source/APS/zps_apl_apsme.c".1256
                0x0400769a       0x36 temp.elf
                0x0400769a                _zps_vInitAPSMECmdHdr
 .text.ovly.ZBAPL."/cygdrive/c/ATLAS_SANDBOX/Components/ZPSAPL_ATLAS_ZPS_APL_1v3_RC3/Source/APS/zps_apl_apsme.c".1351
                0x040076d0       0x9b temp.elf
                0x040076d0                _zps_eAplApsmeCmdMgrSendCommand
 .text.ovly.ZBAPL."/cygdrive/c/ATLAS_SANDBOX/Components/ZPSAPL_ATLAS_ZPS_APL_1v3_RC3/Source/APS/zps_apl_apsme.c".1105
                0x0400776b      0x10d temp.elf
                0x0400776b                _zps_eAplSendApsmeCmdFrame
 .text.ovly.ZBAPL."/cygdrive/c/ATLAS_SANDBOX/Components/ZPSAPL_ATLAS_ZPS_APL_1v3_RC3/Source/APS/zps_apl_apsme.c".972
                0x04007878       0x6c temp.elf
                0x04007878                _zps_eAplApsmeRemoveDeviceReqRsp
 .text.ovly.ZBAPL."/cygdrive/c/ATLAS_SANDBOX/Components/ZPSAPL_ATLAS_ZPS_APL_1v3_RC3/Source/APS/zps_apl_apsme.c".841
                0x040078e4       0x7a temp.elf
                0x040078e4                _zps_eAplApsmeUpdateDeviceReqRsp
 .text.ovly.ZBAPL."/cygdrive/c/ATLAS_SANDBOX/Components/ZPSAPL_ATLAS_ZPS_APL_1v3_RC3/Source/APS/zps_apl_apsme.c".610
                0x0400795e      0x226 temp.elf
                0x0400795e                _zps_eAplApsmeTransportKeyReqRsp
 .text.ovly.ZBAPL."/cygdrive/c/ATLAS_SANDBOX/Components/ZPSAPL_ATLAS_ZPS_APL_1v3_RC3/Source/APS/zps_apl_apsme.c".1428
                0x04007b84       0x28 temp.elf
                0x04007b84                _zps_vAplApsmeCmdMgrRetryTimeout
 .text.ovly.ZBAPL."/cygdrive/c/ATLAS_SANDBOX/Components/ZPSAPL_ATLAS_ZPS_APL_1v3_RC3/Source/APS/zps_apl_apsme.c".1458
                0x04007bac       0x8c temp.elf
                0x04007bac                _zps_bAplApsmeCmdMgrHandleNldeCfm
 .text.bDuplicateCheck
                0x04007c38       0xfd temp.elf
 .text.vHandleTransportKeyFrame
                0x04007d35      0x204 temp.elf
 *fill*         0x04007f39        0x3 00
 .text.zps_vAplApsHandleNldeDcfmInd
                0x04007f3c      0x79c temp.elf
                0x04007f3c                _zps_vAplApsHandleNldeDcfmInd
 .text.zps_vAplApsInitDuplicateTable
                0x040086d8       0x23 temp.elf
                0x040086d8                _zps_vAplApsInitDuplicateTable
 .text.vTransformKey
                0x040086fb       0x36 temp.elf
 .text.zps_psFindKeyDescr
                0x04008731       0xca temp.elf
                0x04008731                _zps_psFindKeyDescr
 .text.ZPS_u8AplGetJoinStatus
                0x040087fb       0x43 temp.elf
                0x040087fb                _ZPS_u8AplGetJoinStatus
 .text.zps_eAplSecEncryptPacket
                0x0400883e       0xf7 temp.elf
                0x0400883e                _zps_eAplSecEncryptPacket
 .text.zps_eAplSecDecryptPacket
                0x04008935       0xe5 temp.elf
                0x04008935                _zps_eAplSecDecryptPacket
 .text.ovly.ZBAPL."/cygdrive/c/ATLAS_SANDBOX/Components/ZPSAPL_ATLAS_ZPS_APL_1v3_RC3/Source/APS/zps_apl_aib.c".96
                0x04008a1a        0x6 temp.elf
                0x04008a1a                _zps_psAplAibGetAib
 .text.ovly.ZBAPL."/cygdrive/c/ATLAS_SANDBOX/Components/ZPSAPL_ATLAS_ZPS_APL_1v3_RC3/Source/APS/zps_apl_aib.c".143
                0x04008a20       0x18 temp.elf
                0x04008a20                _zps_eAplAibSetApsTrustCenterAddress
 .text.ovly.ZBAPL."/cygdrive/c/ATLAS_SANDBOX/Components/ZPSAPL_ATLAS_ZPS_APL_1v3_RC3/Source/APS/zps_apl_aib.c".111
                0x04008a38       0x18 temp.elf
                0x04008a38                _zps_eAplAibSetApsChannelMask
 .text.ovly.ZDO_NM."/cygdrive/c/ATLAS_SANDBOX/Components/ZPSAPL_ATLAS_ZPS_APL_1v3_RC3/Source/ZDO/zps_apl_zdo_nwkmanager.c".565
                0x04008a50        0x6 temp.elf
                0x04008a50                _zps_pvAplZdoGetNwkHandle
 .text.ovly.ZDO_NM."/cygdrive/c/ATLAS_SANDBOX/Components/ZPSAPL_ATLAS_ZPS_APL_1v3_RC3/Source/ZDO/zps_apl_zdo_nwkmanager.c".1475
                0x04008a56       0x2a temp.elf
 .text.vHandleUpdateDeviceIndication
                0x04008a80       0x19 temp.elf
 .text.vHandleRemoveDeviceIndication
                0x04008a99       0xa5 temp.elf
 .text.vHandleSwitchKeyIndication
                0x04008b3e       0x3b temp.elf
 .text.vAplSecRemoveLinkKey
                0x04008b79       0x7b temp.elf
 .text.ovly.ZDO_NM."/cygdrive/c/ATLAS_SANDBOX/Components/ZPSAPL_ATLAS_ZPS_APL_1v3_RC3/Source/ZDO/zps_apl_zdo_nwkmanager.c".1146
                0x04008bf4       0xa5 temp.elf
                0x04008bf4                _zps_eAplZdoAddReplaceLinkKey
 .text.ovly.ZDO_NM."/cygdrive/c/ATLAS_SANDBOX/Components/ZPSAPL_ATLAS_ZPS_APL_1v3_RC3/Source/ZDO/zps_apl_zdo_nwkmanager.c".649
                0x04008c99       0x2a temp.elf
                0x04008c99                _zps_eAplZdoPermitJoining
 .text.ovly.ZDO_NM."/cygdrive/c/ATLAS_SANDBOX/Components/ZPSAPL_ATLAS_ZPS_APL_1v3_RC3/Source/ZDO/zps_apl_zdo_nwkmanager.c".166
                0x04008cc3      0x2d1 temp.elf
                0x04008cc3                _zps_eAplZdoInit
 .text.ovly.ZDO_NM."/cygdrive/c/ATLAS_SANDBOX/Components/ZPSAPL_ATLAS_ZPS_APL_1v3_RC3/Source/ZDO/zps_apl_zdo_nwkmanager.c".406
                0x04008f94        0xa temp.elf
                0x04008f94                _zps_vAplZdoSaveZdoState
 .text.ovly.ZDO_NM."/cygdrive/c/ATLAS_SANDBOX/Components/ZPSAPL_ATLAS_ZPS_APL_1v3_RC3/Source/ZDO/zps_apl_zdo_nwkmanager.c".1510
                0x04008f9e       0x60 temp.elf
 .text.ovly.ZDO_NM."/cygdrive/c/ATLAS_SANDBOX/Components/ZPSAPL_ATLAS_ZPS_APL_1v3_RC3/Source/ZDO/zps_apl_zdo_nwkmanager.c".1551
                0x04008ffe       0xa5 temp.elf
 .text.ovly.ZDO_NM."/cygdrive/c/ATLAS_SANDBOX/Components/ZPSAPL_ATLAS_ZPS_APL_1v3_RC3/Source/ZDO/zps_apl_zdo_nwkmanager.c".1625
                0x040090a3       0x9c temp.elf
 .text.ovly.ZDO_NM."/cygdrive/c/ATLAS_SANDBOX/Components/ZPSAPL_ATLAS_ZPS_APL_1v3_RC3/Source/ZDO/zps_apl_zdo_nwkmanager.c".1685
                0x0400913f       0x84 temp.elf
 .text.ovly.ZDO_NM."/cygdrive/c/ATLAS_SANDBOX/Components/ZPSAPL_ATLAS_ZPS_APL_1v3_RC3/Source/ZDO/zps_apl_zdo_nwkmanager.c".1745
                0x040091c3       0x71 temp.elf
 .text.ovly.ZDO_NM."/cygdrive/c/ATLAS_SANDBOX/Components/ZPSAPL_ATLAS_ZPS_APL_1v3_RC3/Source/ZDO/zps_apl_zdo_nwkmanager.c".424
                0x04009234       0xa6 temp.elf
                0x04009234                _zps_eAplZdoStartStack
 .text.ovly.ZDO_NM."/cygdrive/c/ATLAS_SANDBOX/Components/ZPSAPL_ATLAS_ZPS_APL_1v3_RC3/Source/ZDO/zps_apl_zdo_nwkmanager.c".1791
                0x040092da       0xcf temp.elf
 .text.vHandleTransportKeyIndication
                0x040093a9      0x21e temp.elf
 *fill*         0x040095c7        0x1 00
 .text.zps_vAplZdoHandleApsmeDcfmInd
                0x040095c8       0x94 temp.elf
                0x040095c8                _zps_vAplZdoHandleApsmeDcfmInd
 .text.zps_vAplZdoHandleNlmeDcfmInd
                0x0400965c      0x740 temp.elf
                0x0400965c                _zps_vAplZdoHandleNlmeDcfmInd
 .text.vAplSecAuthTimerExpiry
                0x04009d9c       0xc9 temp.elf
 .text.vAplSecAuthPollTimerExpiry
                0x04009e65       0x5d temp.elf
 .text.ovly.ZDO_TC."/cygdrive/c/ATLAS_SANDBOX/Components/ZPSAPL_ATLAS_ZPS_APL_1v3_RC3/Source/ZDO/zps_apl_zdo_trust_center.c".458
                0x04009ec2        0xd temp.elf
 .text.ovly.ZDO_TC."/cygdrive/c/ATLAS_SANDBOX/Components/ZPSAPL_ATLAS_ZPS_APL_1v3_RC3/Source/ZDO/zps_apl_zdo_trust_center.c".83
                0x04009ecf       0xd6 temp.elf
                0x04009ecf                _zps_vAplTrustCenterInit
 .text.ovly.ZDO_TC."/cygdrive/c/ATLAS_SANDBOX/Components/ZPSAPL_ATLAS_ZPS_APL_1v3_RC3/Source/ZDO/zps_apl_zdo_trust_center.c".431
                0x04009fa5       0x3e temp.elf
                0x04009fa5                _zps_eAplTrustCenterFindDevice
 .text.ovly.ZDO_TC."/cygdrive/c/ATLAS_SANDBOX/Components/ZPSAPL_ATLAS_ZPS_APL_1v3_RC3/Source/ZDO/zps_apl_zdo_trust_center.c".296
                0x04009fe3      0x1a1 temp.elf
                0x04009fe3                _zps_vAplTrustCenterRequestKey
 .text.ovly.ZDO_TC."/cygdrive/c/ATLAS_SANDBOX/Components/ZPSAPL_ATLAS_ZPS_APL_1v3_RC3/Source/ZDO/zps_apl_zdo_trust_center.c".163
                0x0400a184      0x15b temp.elf
                0x0400a184                _zps_vAplTrustCenterUpdateDevice
 .text.zps_bAplZdoHandleZdpEvent
                0x0400a2df       0x50 temp.elf
                0x0400a2df                _zps_bAplZdoHandleZdpEvent
 .text.ovly.ZDO_DFLT."/cygdrive/c/ATLAS_SANDBOX/Components/ZPSAPL_ATLAS_ZPS_APL_1v3_RC3/Source/ZDO/zps_apl_zdo_default_server.c".105
                0x0400a32f        0x9 temp.elf
                0x0400a32f                _zps_vAplZdoDefaultServerInit
 .text.ovly.ZDO_DFLT."/cygdrive/c/ATLAS_SANDBOX/Components/ZPSAPL_ATLAS_ZPS_APL_1v3_RC3/Source/ZDO/zps_apl_zdo_default_server.c".130
                0x0400a338      0x2d8 temp.elf
                0x0400a338                _zps_bAplZdoDefaultServer
 .text.ovly.ZDO_ED_BND."/cygdrive/c/ATLAS_SANDBOX/Components/ZPSAPL_ATLAS_ZPS_APL_1v3_RC3/Source/ZDO/zps_apl_zdo_end_device_bind_server.c".627
                0x0400a610       0x5d temp.elf
 .text.ovly.ZDO_ED_BND."/cygdrive/c/ATLAS_SANDBOX/Components/ZPSAPL_ATLAS_ZPS_APL_1v3_RC3/Source/ZDO/zps_apl_zdo_end_device_bind_server.c".797
                0x0400a66d       0xa6 temp.elf
                0x0400a66d                _u8ZdoEndDeviceBindServerUnpackApdu
 .text.ovly.ZDO_ED_BND."/cygdrive/c/ATLAS_SANDBOX/Components/ZPSAPL_ATLAS_ZPS_APL_1v3_RC3/Source/ZDO/zps_apl_zdo_end_device_bind_server.c".774
                0x0400a713       0x31 temp.elf
                0x0400a713                _u8ZdoUnpackApduBindUnbindRsp
 .text.ovly.ZDO_ED_BND."/cygdrive/c/ATLAS_SANDBOX/Components/ZPSAPL_ATLAS_ZPS_APL_1v3_RC3/Source/ZDO/zps_apl_zdo_end_device_bind_server.c".216
                0x0400a744       0xb7 temp.elf
                0x0400a744                _zps_bAplZdoEndDeviceBindServer
 .text.ovly.ZDO_ED_BND."/cygdrive/c/ATLAS_SANDBOX/Components/ZPSAPL_ATLAS_ZPS_APL_1v3_RC3/Source/ZDO/zps_apl_zdo_end_device_bind_server.c".748
                0x0400a7fb       0x14 temp.elf
                0x0400a7fb                _vZdoEndDeviceBindTimeoutSecondMessage
 .text.ovly.ZDO_ED_BND."/cygdrive/c/ATLAS_SANDBOX/Components/ZPSAPL_ATLAS_ZPS_APL_1v3_RC3/Source/ZDO/zps_apl_zdo_end_device_bind_server.c".837
                0x0400a80f       0xe0 temp.elf
 .text.ovly.ZDO_ED_BND."/cygdrive/c/ATLAS_SANDBOX/Components/ZPSAPL_ATLAS_ZPS_APL_1v3_RC3/Source/ZDO/zps_apl_zdo_end_device_bind_server.c".676
                0x0400a8ef       0x8a temp.elf
                0x0400a8ef                _bZdoFindMatchAndSendReq
 .text.ovly.ZDO_ED_BND."/cygdrive/c/ATLAS_SANDBOX/Components/ZPSAPL_ATLAS_ZPS_APL_1v3_RC3/Source/ZDO/zps_apl_zdo_end_device_bind_server.c".928
                0x0400a979       0x4a temp.elf
 .text.ovly.ZDO_ED_BND."/cygdrive/c/ATLAS_SANDBOX/Components/ZPSAPL_ATLAS_ZPS_APL_1v3_RC3/Source/ZDO/zps_apl_zdo_end_device_bind_server.c".435
                0x0400a9c3      0x1e0 temp.elf
                0x0400a9c3                _vZdoEndDeviceBindStateWaitSecondRequest
 .text.ovly.ZDO_ED_BND."/cygdrive/c/ATLAS_SANDBOX/Components/ZPSAPL_ATLAS_ZPS_APL_1v3_RC3/Source/ZDO/zps_apl_zdo_end_device_bind_server.c".300
                0x0400aba3       0xff temp.elf
                0x0400aba3                _vZdoEndDeviceBindStateIdle
 .text.ovly.ZDO_ED_BND."/cygdrive/c/ATLAS_SANDBOX/Components/ZPSAPL_ATLAS_ZPS_APL_1v3_RC3/Source/ZDO/zps_apl_zdo_end_device_bind_server.c".187
                0x0400aca2       0x23 temp.elf
                0x0400aca2                _zps_vAplZdoEndDeviceBindServerInit
 .text.ovly.ZDO_ED_BND."/cygdrive/c/ATLAS_SANDBOX/Components/ZPSAPL_ATLAS_ZPS_APL_1v3_RC3/Source/ZDO/zps_apl_zdo_end_device_bind_server.c".969
                0x0400acc5      0x284 temp.elf
                0x0400acc5                _vZdoEndDeviceBindStateWaitSendWithAck
 .text.ovly.ZDO_NAS."/cygdrive/c/ATLAS_SANDBOX/Components/ZPSAPL_ATLAS_ZPS_APL_1v3_RC3/Source/ZDO/zps_apl_zdo_nwk_addr_server.c".275
                0x0400af49       0x68 temp.elf
                0x0400af49                _vZdoNwkAddrServerSendExtendResponse
 .text.ovly.ZDO_NAS."/cygdrive/c/ATLAS_SANDBOX/Components/ZPSAPL_ATLAS_ZPS_APL_1v3_RC3/Source/ZDO/zps_apl_zdo_nwk_addr_server.c".146
                0x0400afb1      0x16e temp.elf
                0x0400afb1                _zps_bAplZdoNwkAddrServer
 .text.ovly.ZDO_NAS."/cygdrive/c/ATLAS_SANDBOX/Components/ZPSAPL_ATLAS_ZPS_APL_1v3_RC3/Source/ZDO/zps_apl_zdo_nwk_addr_server.c".123
                0x0400b11f        0x9 temp.elf
                0x0400b11f                _zps_vAplZdoNwkAddrServerInit
 .text.ovly.ZDO_IAS."/cygdrive/c/ATLAS_SANDBOX/Components/ZPSAPL_ATLAS_ZPS_APL_1v3_RC3/Source/ZDO/zps_apl_zdo_ieee_addr_server.c".276
                0x0400b128       0x68 temp.elf
                0x0400b128                _vZdoIeeeAddrServerSendExtendResponse
 .text.ovly.ZDO_IAS."/cygdrive/c/ATLAS_SANDBOX/Components/ZPSAPL_ATLAS_ZPS_APL_1v3_RC3/Source/ZDO/zps_apl_zdo_ieee_addr_server.c".147
                0x0400b190      0x160 temp.elf
                0x0400b190                _zps_bAplZdoIeeeAddrServer
 .text.ovly.ZDO_IAS."/cygdrive/c/ATLAS_SANDBOX/Components/ZPSAPL_ATLAS_ZPS_APL_1v3_RC3/Source/ZDO/zps_apl_zdo_ieee_addr_server.c".122
                0x0400b2f0        0x9 temp.elf
                0x0400b2f0                _zps_vAplZdoIeeeAddrServerInit
 .text.ovly.ZDO_MDS."/cygdrive/c/ATLAS_SANDBOX/Components/ZPSAPL_ATLAS_ZPS_APL_1v3_RC3/Source/ZDO/zps_apl_zdo_match_desc_server.c".121
                0x0400b2f9        0x9 temp.elf
                0x0400b2f9                _zps_vAplZdoMatchDescServerInit
 .text.ovly.ZDO_MDS."/cygdrive/c/ATLAS_SANDBOX/Components/ZPSAPL_ATLAS_ZPS_APL_1v3_RC3/Source/ZDO/zps_apl_zdo_match_desc_server.c".358
                0x0400b302       0x1c temp.elf
 .text.ovly.ZDO_MDS."/cygdrive/c/ATLAS_SANDBOX/Components/ZPSAPL_ATLAS_ZPS_APL_1v3_RC3/Source/ZDO/zps_apl_zdo_match_desc_server.c".385
                0x0400b31e       0x98 temp.elf
 .text.ovly.ZDO_MDS."/cygdrive/c/ATLAS_SANDBOX/Components/ZPSAPL_ATLAS_ZPS_APL_1v3_RC3/Source/ZDO/zps_apl_zdo_match_desc_server.c".148
                0x0400b3b6      0x230 temp.elf
                0x0400b3b6                _zps_bAplZdoMatchDescServer
 .text.ovly.ZDO_NDS."/cygdrive/c/ATLAS_SANDBOX/Components/ZPSAPL_ATLAS_ZPS_APL_1v3_RC3/Source/ZDO/zps_apl_zdo_node_desc_server.c".137
                0x0400b5e6      0x1e9 temp.elf
                0x0400b5e6                _zps_bAplZdoNodeDescServer
 .text.ovly.ZDO_NDS."/cygdrive/c/ATLAS_SANDBOX/Components/ZPSAPL_ATLAS_ZPS_APL_1v3_RC3/Source/ZDO/zps_apl_zdo_node_desc_server.c".108
                0x0400b7cf        0x9 temp.elf
                0x0400b7cf                _zps_vAplZdoNodeDescServerInit
 .text.ovly.ZDO_SDS."../Source/ZDO/zps_apl_zdo_simple_desc_server.c".109
                0x0400b7d8        0xf temp.elf
                0x0400b7d8                _zps_vAplZdoSimpleDescServerInit
 .text.ovly.ZDO_SDS."../Source/ZDO/zps_apl_zdo_simple_desc_server.c".134
                0x0400b7e7      0x220 temp.elf
                0x0400b7e7                _zps_bAplZdoSimpleDescServer
 .text.ovly.ZDO_PDS."/cygdrive/c/ATLAS_SANDBOX/Components/ZPSAPL_ATLAS_ZPS_APL_1v3_RC3/Source/ZDO/zps_apl_zdo_power_desc_server.c".137
                0x0400ba07      0x18c temp.elf
                0x0400ba07                _zps_bAplZdoPowerDescServer
 .text.ovly.ZDO_PDS."/cygdrive/c/ATLAS_SANDBOX/Components/ZPSAPL_ATLAS_ZPS_APL_1v3_RC3/Source/ZDO/zps_apl_zdo_power_desc_server.c".112
                0x0400bb93        0x9 temp.elf
                0x0400bb93                _zps_vAplZdoPowerDescServerInit
 .text.ovly.ZDO_AEPS."/cygdrive/c/ATLAS_SANDBOX/Components/ZPSAPL_ATLAS_ZPS_APL_1v3_RC3/Source/ZDO/zps_apl_zdo_active_ep_server.c".138
                0x0400bb9c      0x136 temp.elf
                0x0400bb9c                _zps_bAplZdoActiveEpServer
 .text.ovly.ZDO_AEPS."/cygdrive/c/ATLAS_SANDBOX/Components/ZPSAPL_ATLAS_ZPS_APL_1v3_RC3/Source/ZDO/zps_apl_zdo_active_ep_server.c".113
                0x0400bcd2        0x9 temp.elf
                0x0400bcd2                _zps_vAplZdoActiveEpServerInit
 .text.ovly.ZDO_DAS."/cygdrive/c/ATLAS_SANDBOX/Components/ZPSAPL_ATLAS_ZPS_APL_1v3_RC3/Source/ZDO/zps_apl_zdo_device_annce_server.c".85
                0x0400bcdb        0x3 temp.elf
                0x0400bcdb                _zps_vAplZdoDeviceAnnceServerInit
 .text.ovly.ZDO_DAS."/cygdrive/c/ATLAS_SANDBOX/Components/ZPSAPL_ATLAS_ZPS_APL_1v3_RC3/Source/ZDO/zps_apl_zdo_device_annce_server.c".108
                0x0400bcde       0x7f temp.elf
                0x0400bcde                _zps_bAplZdoDeviceAnnceServer
 .text.ovly.ZDO_PMJS."/cygdrive/c/ATLAS_SANDBOX/Components/ZPSAPL_ATLAS_ZPS_APL_1v3_RC3/Source/ZDO/zps_apl_zdo_permit_joining_server.c".139
                0x0400bd5d       0xe8 temp.elf
                0x0400bd5d                _zps_bAplZdoPermitJoiningServer
 .text.ovly.ZDO_PMJS."/cygdrive/c/ATLAS_SANDBOX/Components/ZPSAPL_ATLAS_ZPS_APL_1v3_RC3/Source/ZDO/zps_apl_zdo_permit_joining_server.c".113
                0x0400be45        0x9 temp.elf
                0x0400be45                _zps_vAplZdoPermitJoiningServerInit
 .text.ovly.ZDO_SSDS."/cygdrive/c/ATLAS_SANDBOX/Components/ZPSAPL_ATLAS_ZPS_APL_1v3_RC3/Source/ZDO/zps_apl_zdo_system_server_discovery_server.c".139
                0x0400be4e       0xd6 temp.elf
                0x0400be4e                _zps_bAplZdoSystemServerDiscoveryServer
 .text.ovly.ZDO_SSDS."/cygdrive/c/ATLAS_SANDBOX/Components/ZPSAPL_ATLAS_ZPS_APL_1v3_RC3/Source/ZDO/zps_apl_zdo_system_server_discovery_server.c".109
                0x0400bf24        0x9 temp.elf
                0x0400bf24                _zps_vAplZdoSystemServerDiscoveryServerInit
 .text.ovly.ZDO_MLQS."/cygdrive/c/ATLAS_SANDBOX/Components/ZPSAPL_ATLAS_ZPS_APL_1v3_RC3/Source/ZDO/zps_apl_zdo_mgmt_lqi_server.c".134
                0x0400bf2d      0x1f6 temp.elf
                0x0400bf2d                _zps_bAplZdoMgmtLqiServer
 .text.ovly.ZDO_MLQS."/cygdrive/c/ATLAS_SANDBOX/Components/ZPSAPL_ATLAS_ZPS_APL_1v3_RC3/Source/ZDO/zps_apl_zdo_mgmt_lqi_server.c".109
                0x0400c123        0x9 temp.elf
                0x0400c123                _zps_vAplZdoMgmtLqiServerInit
 .text.ovly.ZDO_MRS."/cygdrive/c/ATLAS_SANDBOX/Components/ZPSAPL_ATLAS_ZPS_APL_1v3_RC3/Source/ZDO/zps_apl_zdo_mgmt_rtg_server.c".139
                0x0400c12c      0x123 temp.elf
                0x0400c12c                _zps_bAplZdoMgmtRtgServer
 .text.ovly.ZDO_MRS."/cygdrive/c/ATLAS_SANDBOX/Components/ZPSAPL_ATLAS_ZPS_APL_1v3_RC3/Source/ZDO/zps_apl_zdo_mgmt_rtg_server.c".115
                0x0400c24f        0x9 temp.elf
                0x0400c24f                _zps_vAplZdoMgmtRtgServerInit
 .text.ovly.ZDO_MLS."/cygdrive/c/ATLAS_SANDBOX/Components/ZPSAPL_ATLAS_ZPS_APL_1v3_RC3/Source/ZDO/zps_apl_zdo_mgmt_leave_server.c".111
                0x0400c258        0x9 temp.elf
                0x0400c258                _zps_vAplZdoMgmtLeaveServerInit
 .text.ovly.ZDO_MLS."/cygdrive/c/ATLAS_SANDBOX/Components/ZPSAPL_ATLAS_ZPS_APL_1v3_RC3/Source/ZDO/zps_apl_zdo_mgmt_leave_server.c".265
                0x0400c261       0x44 temp.elf
 .text.ovly.ZDO_MLS."/cygdrive/c/ATLAS_SANDBOX/Components/ZPSAPL_ATLAS_ZPS_APL_1v3_RC3/Source/ZDO/zps_apl_zdo_mgmt_leave_server.c".138
                0x0400c2a5      0x150 temp.elf
                0x0400c2a5                _zps_bAplZdoMgmtLeaveServer
 .text.ovly.ZDO_MNUS."/cygdrive/c/ATLAS_SANDBOX/Components/ZPSAPL_ATLAS_ZPS_APL_1v3_RC3/Source/ZDO/zps_apl_zdo_mgmt_nwk_update_server.c".129
                0x0400c3f5        0x9 temp.elf
                0x0400c3f5                _zps_vAplZdoMgmtNWKUpdateServerInit
 .text.ovly.ZDO_MNUS."/cygdrive/c/ATLAS_SANDBOX/Components/ZPSAPL_ATLAS_ZPS_APL_1v3_RC3/Source/ZDO/zps_apl_zdo_mgmt_nwk_update_server.c".439
                0x0400c3fe       0x2a temp.elf
 .text.ovly.ZDO_MNUS."/cygdrive/c/ATLAS_SANDBOX/Components/ZPSAPL_ATLAS_ZPS_APL_1v3_RC3/Source/ZDO/zps_apl_zdo_mgmt_nwk_update_server.c".458
                0x0400c428       0x21 temp.elf
 .text.ovly.ZDO_MNUS."/cygdrive/c/ATLAS_SANDBOX/Components/ZPSAPL_ATLAS_ZPS_APL_1v3_RC3/Source/ZDO/zps_apl_zdo_mgmt_nwk_update_server.c".418
                0x0400c449       0x33 temp.elf
 .text.ovly.ZDO_MNUS."/cygdrive/c/ATLAS_SANDBOX/Components/ZPSAPL_ATLAS_ZPS_APL_1v3_RC3/Source/ZDO/zps_apl_zdo_mgmt_nwk_update_server.c".506
                0x0400c47c       0x1c temp.elf
 .text.ovly.ZDO_MNUS."/cygdrive/c/ATLAS_SANDBOX/Components/ZPSAPL_ATLAS_ZPS_APL_1v3_RC3/Source/ZDO/zps_apl_zdo_mgmt_nwk_update_server.c".151
                0x0400c498      0x300 temp.elf
                0x0400c498                _zps_bAplZdoMgmtNWKUpdateServer
 .text.ovly.ZDO_MNUS."/cygdrive/c/ATLAS_SANDBOX/Components/ZPSAPL_ATLAS_ZPS_APL_1v3_RC3/Source/ZDO/zps_apl_zdo_mgmt_nwk_update_server.c".474
                0x0400c798       0x52 temp.elf
 .text.ovly.ZDO_CMN."/cygdrive/c/ATLAS_SANDBOX/Components/ZPSAPL_ATLAS_ZPS_APL_1v3_RC3/Source/ZDO/zps_apl_zdo_common.c".102
                0x0400c7ea       0x70 temp.elf
                0x0400c7ea                _zps_eAplZdoNlmeleaveWrapper
 .text.ovly.ZDO_CMN."/cygdrive/c/ATLAS_SANDBOX/Components/ZPSAPL_ATLAS_ZPS_APL_1v3_RC3/Source/ZDO/zps_apl_zdo_common.c".147
                0x0400c85a       0x2c temp.elf
                0x0400c85a                _zps_eAplZdoNlmePermitJoiningWrapper
 .text.ovly.ZDO_CMN."/cygdrive/c/ATLAS_SANDBOX/Components/ZPSAPL_ATLAS_ZPS_APL_1v3_RC3/Source/ZDO/zps_apl_zdo_common.c".183
                0x0400c886       0x3c temp.elf
                0x0400c886                _zps_eAplZdoSendZdpResponse
 .text.ovly.ZDO_CMN."/cygdrive/c/ATLAS_SANDBOX/Components/ZPSAPL_ATLAS_ZPS_APL_1v3_RC3/Source/ZDO/zps_apl_zdo_common.c".234
                0x0400c8c2       0x49 temp.elf
                0x0400c8c2                _zps_bAplZdoServerHandleConfirmAcks
 .text.ovly.ZDO_NMC."/cygdrive/c/ATLAS_SANDBOX/Components/ZPSAPL_ATLAS_ZPS_APL_1v3_RC3/Source/ZDO/zps_apl_zdo_nwkmanager_client.c".172
                0x0400c90b        0xc temp.elf
                0x0400c90b                _zps_vAplZdoZdoClientInit
 .text.ovly.ZDO_NMC."/cygdrive/c/ATLAS_SANDBOX/Components/ZPSAPL_ATLAS_ZPS_APL_1v3_RC3/Source/ZDO/zps_apl_zdo_nwkmanager_client.c".312
                0x0400c917      0x129 temp.elf
 .text.ovly.ZDO_NMC."/cygdrive/c/ATLAS_SANDBOX/Components/ZPSAPL_ATLAS_ZPS_APL_1v3_RC3/Source/ZDO/zps_apl_zdo_nwkmanager_client.c".201
                0x0400ca40      0x126 temp.elf
                0x0400ca40                _zps_bAplZdoZdoClient
 .text.ovly.ZDP."/cygdrive/c/ATLAS_SANDBOX/Components/ZPSAPL_ATLAS_ZPS_APL_1v3_RC3/Source/ZDP/zps_apl_zdp_apsde_req.c".241
                0x0400cb66       0x75 temp.elf
                0x0400cb66                _zps_eAplZdpApsdeReqInternal
 .text.ovly.ZDP."/cygdrive/c/ATLAS_SANDBOX/Components/ZPSAPL_ATLAS_ZPS_APL_1v3_RC3/Source/ZDP/zps_apl_zdp_apsde_req.c".159
                0x0400cbdb       0x12 temp.elf
                0x0400cbdb                _zps_eAplZdpResponseApsdeReq
 .text.ovly.ZDP."/cygdrive/c/ATLAS_SANDBOX/Components/ZPSAPL_ATLAS_ZPS_APL_1v3_RC3/Source/ZDP/zps_apl_zdp_apsde_req.c".185
                0x0400cbed       0x66 temp.elf
                0x0400cbed                _zps_eAplZdpGenStatusOnlyResponse
 .text.ovly.ZDP."/cygdrive/c/ATLAS_SANDBOX/Components/ZPSAPL_ATLAS_ZPS_APL_1v3_RC3/Source/ZDP/zps_apl_zdp_nwk_addr_rsp.c".94
                0x0400cc53       0xee temp.elf
                0x0400cc53                _zps_eZdpNwkAddrResponse
 .text.ovly.ZDP."/cygdrive/c/ATLAS_SANDBOX/Components/ZPSAPL_ATLAS_ZPS_APL_1v3_RC3/Source/ZDP/zps_apl_zdp_ieee_addr_rsp.c".95
                0x0400cd41       0xee temp.elf
                0x0400cd41                _zps_eZdpIeeeAddrResponse
 .text.ovly.ZDP."/cygdrive/c/ATLAS_SANDBOX/Components/ZPSAPL_ATLAS_ZPS_APL_1v3_RC3/Source/ZDP/zps_apl_zdp_node_desc_rsp.c".94
                0x0400ce2f       0xb6 temp.elf
                0x0400ce2f                _zps_eZdpNodeDescResponse
 .text.ovly.ZDP."/cygdrive/c/ATLAS_SANDBOX/Components/ZPSAPL_ATLAS_ZPS_APL_1v3_RC3/Source/ZDP/zps_apl_zdp_power_desc_rsp.c".94
                0x0400cee5       0xad temp.elf
                0x0400cee5                _zps_eZdpPowerDescResponse
 .text.ovly.ZDP."/cygdrive/c/ATLAS_SANDBOX/Components/ZPSAPL_ATLAS_ZPS_APL_1v3_RC3/Source/ZDP/zps_apl_zdp_simple_desc_rsp.c".94
                0x0400cf92      0x123 temp.elf
                0x0400cf92                _zps_eZdpSimpleDescResponse
 .text.ovly.ZDP."/cygdrive/c/ATLAS_SANDBOX/Components/ZPSAPL_ATLAS_ZPS_APL_1v3_RC3/Source/ZDP/zps_apl_zdp_active_ep_rsp.c".94
                0x0400d0b5       0xae temp.elf
                0x0400d0b5                _zps_eZdpActiveEpResponse
 .text.ovly.ZDP."/cygdrive/c/ATLAS_SANDBOX/Components/ZPSAPL_ATLAS_ZPS_APL_1v3_RC3/Source/ZDP/zps_apl_zdp_match_desc_rsp.c".93
                0x0400d163       0xae temp.elf
                0x0400d163                _zps_eZdpMatchDescResponse
 .text.ovly.ZDP."/cygdrive/c/ATLAS_SANDBOX/Components/ZPSAPL_ATLAS_ZPS_APL_1v3_RC3/Source/ZDP/zps_apl_zdp_system_server_discovery_rsp.c".94
                0x0400d211       0x74 temp.elf
                0x0400d211                _zps_eZdpSystemServerDiscoveryResponse
 .text.ovly.ZDP."/cygdrive/c/ATLAS_SANDBOX/Components/ZPSAPL_ATLAS_ZPS_APL_1v3_RC3/Source/ZDP/zps_apl_zdp_end_device_bind_rsp.c".94
                0x0400d285       0x24 temp.elf
                0x0400d285                _zps_eZdpEndDeviceBindResponse
 .text.ovly.ZDP."/cygdrive/c/ATLAS_SANDBOX/Components/ZPSAPL_ATLAS_ZPS_APL_1v3_RC3/Source/ZDP/zps_apl_zdp_mgmt_lqi_rsp.c".94
                0x0400d2a9       0xec temp.elf
                0x0400d2a9                _zps_eAplZdpMgmtLqiResponse
 .text.ovly.ZDP."/cygdrive/c/ATLAS_SANDBOX/Components/ZPSAPL_ATLAS_ZPS_APL_1v3_RC3/Source/ZDP/zps_apl_zdp_mgmt_rtg_rsp.c".94
                0x0400d395       0xab temp.elf
                0x0400d395                _zps_eAplZdpMgmtRtgResponse
 .text.ovly.ZDP."/cygdrive/c/ATLAS_SANDBOX/Components/ZPSAPL_ATLAS_ZPS_APL_1v3_RC3/Source/ZDP/zps_apl_zdp_mgmt_leave_rsp.c".94
                0x0400d440       0x24 temp.elf
                0x0400d440                _zps_eZdpMgmtLeaveResponse
 .text.ovly.ZDP."/cygdrive/c/ATLAS_SANDBOX/Components/ZPSAPL_ATLAS_ZPS_APL_1v3_RC3/Source/ZDP/zps_apl_zdp_mgmt_nwk_update_notify_rsp.c".94
                0x0400d464       0xb6 temp.elf
                0x0400d464                _zps_eZdpMgmtNwkUpdateNotifyResponse
 .text.ovly.ZDP."/cygdrive/c/ATLAS_SANDBOX/Components/ZPSAPL_ATLAS_ZPS_APL_1v3_RC3/Source/ZDP/zps_apl_zdp_mgmt_permit_joining_rsp.c".94
                0x0400d51a       0x24 temp.elf
                0x0400d51a                _zps_eZdpMgmtPermitJoiningResponse
 .text.324      0x0400d53e        0x0 temp.elf
                0x0400d53e                ZPS_NWK_Version_1v3
 .text.ZPS_vNwkRegisterNlmeDcfmIndCallbacks
                0x0400d53e        0xe temp.elf
                0x0400d53e                _ZPS_vNwkRegisterNlmeDcfmIndCallbacks
 .text.ZPS_vNwkRegisterNldeDcfmIndCallbacks
                0x0400d54c        0xe temp.elf
                0x0400d54c                _ZPS_vNwkRegisterNldeDcfmIndCallbacks
 .text.zps_psNwkDcfmIndGetBuf
                0x0400d55a       0x24 temp.elf
                0x0400d55a                _zps_psNwkDcfmIndGetBuf
 .text.zps_eNwkDcfmIndPost
                0x0400d57e       0x22 temp.elf
                0x0400d57e                _zps_eNwkDcfmIndPost
 .text.ZPS_pvNwkCtor
                0x0400d5a0       0x8b temp.elf
                0x0400d5a0                _ZPS_pvNwkCtor
 .text.zps_psNwkMcpsMgrFindByBtr
                0x0400d62b       0x26 temp.elf
                0x0400d62b                _zps_psNwkMcpsMgrFindByBtr
 .text.zps_u8NwkAllocateMcpsHandle
                0x0400d651       0x2e temp.elf
                0x0400d651                _zps_u8NwkAllocateMcpsHandle
 .text.vNwkMcpsTimerCallback
                0x0400d67f       0x1a temp.elf
                0x0400d67f                _vNwkMcpsTimerCallback
 .text.vNwkMcpsSendTimedDfcm
                0x0400d699       0x4b temp.elf
                0x0400d699                _vNwkMcpsSendTimedDfcm
 .text.vInitUnknownNeighbor
                0x0400d6e4       0x3c temp.elf
 .text.zps_psNwkMcpsMgrFindPendingByNwkDstAddr
                0x0400d720       0x3b temp.elf
                0x0400d720                _zps_psNwkMcpsMgrFindPendingByNwkDstAddr
 .text.zps_psNwkMcpsMgrAllocateReqDescr
                0x0400d75b        0xa temp.elf
                0x0400d75b                _zps_psNwkMcpsMgrAllocateReqDescr
 .text.zps_vNwkMcpsMgrFreeReqDescr
                0x0400d765       0x30 temp.elf
                0x0400d765                _zps_vNwkMcpsMgrFreeReqDescr
 .text.vProcessListsForSubmission
                0x0400d795      0x199 temp.elf
 .text.zps_psNwkMcpsMgrFindByHandleAndRemove
                0x0400d92e       0x45 temp.elf
                0x0400d92e                _zps_psNwkMcpsMgrFindByHandleAndRemove
 .text.zps_vNwkMcpsMgrPost
                0x0400d973       0x2a temp.elf
                0x0400d973                _zps_vNwkMcpsMgrPost
 .text.zps_bNwkMcpsMgrRemoveDescrFromLists
                0x0400d99d       0x48 temp.elf
                0x0400d99d                _zps_bNwkMcpsMgrRemoveDescrFromLists
 .text.zps_vNwkMcpsMgrTidyBtrReqDescr
                0x0400d9e5       0x2d temp.elf
                0x0400d9e5                _zps_vNwkMcpsMgrTidyBtrReqDescr
 .text.vProcessTimedList
                0x0400da12       0x47 temp.elf
 .text.zps_vNwkMcpsMgrPostTimed
                0x0400da59       0x1a temp.elf
                0x0400da59                _zps_vNwkMcpsMgrPostTimed
 .text.vMcpsMgrExpiry
                0x0400da73       0x57 temp.elf
 .text.zps_vNwkMcpsMgrInit
                0x0400daca       0x8e temp.elf
                0x0400daca                _zps_vNwkMcpsMgrInit
 .text.zps_eNwkHandleSdeActvDcfmData
                0x0400db58       0xba temp.elf
                0x0400db58                _zps_eNwkHandleSdeActvDcfmData
 .text.vMcpsMgrTimeoutExpiry
                0x0400dc12       0x7a temp.elf
                0x0400dc12                _vMcpsMgrTimeoutExpiry
 .text.ZPS_vNwkHandleMcpsVsDcfmInd
                0x0400dc8c      0x611 temp.elf
                0x0400dc8c                _ZPS_vNwkHandleMcpsVsDcfmInd
 .text.ZPS_vNwkHandleMlmeDcfmInd
                0x0400e29d       0x71 temp.elf
                0x0400e29d                _ZPS_vNwkHandleMlmeDcfmInd
 .text.ZPS_psNwkNibGetHandle
                0x0400e30e        0x7 temp.elf
                0x0400e30e                _ZPS_psNwkNibGetHandle
 .text.ZPS_vNwkNibSetTables
                0x0400e315       0x4e temp.elf
                0x0400e315                _ZPS_vNwkNibSetTables
 .text.ZPS_u16NwkNibGetNwkAddr
                0x0400e363        0x9 temp.elf
                0x0400e363                _ZPS_u16NwkNibGetNwkAddr
 .text.ZPS_u64NwkNibGetEpid
                0x0400e36c        0xb temp.elf
                0x0400e36c                _ZPS_u64NwkNibGetEpid
 .text.ZPS_bNwkNibNtActvMatch
                0x0400e377       0x93 temp.elf
                0x0400e377                _ZPS_bNwkNibNtActvMatch
 .text.ZPS_bNwkNibAddrMapAddEntry
                0x0400e40a       0xae temp.elf
                0x0400e40a                _ZPS_bNwkNibAddrMapAddEntry
 .text.ZPS_vNwkSaveSecMat
                0x0400e4b8        0xa temp.elf
                0x0400e4b8                _ZPS_vNwkSaveSecMat
 .text.ZPS_vNwkIncOutFC
                0x0400e4c2       0x2a temp.elf
                0x0400e4c2                _ZPS_vNwkIncOutFC
 .text.ZPS_vNwkSaveNt
                0x0400e4ec        0xa temp.elf
                0x0400e4ec                _ZPS_vNwkSaveNt
 .text.ZPS_vNtSetUsedStatus
                0x0400e4f6       0x65 temp.elf
                0x0400e4f6                _ZPS_vNtSetUsedStatus
 .text.ZPS_u64NwkNibGetExtAddr
                0x0400e55b        0x6 temp.elf
                0x0400e55b                _ZPS_u64NwkNibGetExtAddr
 .text.ZPS_u64NwkNibFindExtAddr
                0x0400e561       0x6b temp.elf
                0x0400e561                _ZPS_u64NwkNibFindExtAddr
 .text.ZPS_vNwkNibCheckAndUpdateAddresses
                0x0400e5cc       0x78 temp.elf
                0x0400e5cc                _ZPS_vNwkNibCheckAndUpdateAddresses
 .text.zps_vNibSetDefaults
                0x0400e644      0x2b8 temp.elf
                0x0400e644                _zps_vNibSetDefaults
 .text.zps_sNwkNibNtCheckJoin
                0x0400e8fc      0x1eb temp.elf
                0x0400e8fc                _zps_sNwkNibNtCheckJoin
 .text.ZPS_vNwkNibSetNwkAddr
                0x0400eae7       0x21 temp.elf
                0x0400eae7                _ZPS_vNwkNibSetNwkAddr
 .text.ZPS_vNwkNibSetNwkAddrNibOnly
                0x0400eb08        0xe temp.elf
                0x0400eb08                _ZPS_vNwkNibSetNwkAddrNibOnly
 .text.ZPS_vNwkNibSetExtPanId
                0x0400eb16       0x2e temp.elf
                0x0400eb16                _ZPS_vNwkNibSetExtPanId
 .text.ZPS_vNwkNibSetKeySeqNum
                0x0400eb44       0x19 temp.elf
                0x0400eb44                _ZPS_vNwkNibSetKeySeqNum
 .text.ZPS_vNwkNibSetDepth
                0x0400eb5d        0xe temp.elf
                0x0400eb5d                _ZPS_vNwkNibSetDepth
 .text.ZPS_vNwkNibSetUpdateId
                0x0400eb6b        0xe temp.elf
                0x0400eb6b                _ZPS_vNwkNibSetUpdateId
 .text.ZPS_vNwkNibIncSeqNum
                0x0400eb79        0xd temp.elf
                0x0400eb79                _ZPS_vNwkNibIncSeqNum
 .text.ZPS_vNwkNibSetPanId
                0x0400eb86       0x21 temp.elf
                0x0400eb86                _ZPS_vNwkNibSetPanId
 .text.ZPS_vNwkNibSetCapabilityInfo
                0x0400eba7       0x30 temp.elf
                0x0400eba7                _ZPS_vNwkNibSetCapabilityInfo
 .text.ZPS_vNwkNibSetChannel
                0x0400ebd7       0x23 temp.elf
                0x0400ebd7                _ZPS_vNwkNibSetChannel
 .text.ZPS_vNwkNibSetParentAddr
                0x0400ebfa       0x14 temp.elf
                0x0400ebfa                _ZPS_vNwkNibSetParentAddr
 .text.ZPS_vNtSetAuthStatus
                0x0400ec0e       0x28 temp.elf
                0x0400ec0e                _ZPS_vNtSetAuthStatus
 .text.ZPS_vNwkNibClearTables
                0x0400ec36       0xae temp.elf
                0x0400ec36                _ZPS_vNwkNibClearTables
 .text.ZPS_u8NwkNibNtDiscMatch
                0x0400ece4       0xdf temp.elf
                0x0400ece4                _ZPS_u8NwkNibNtDiscMatch
 .text.ZPS_vNwkNibCheckAndUpdateChildren
                0x0400edc3       0x72 temp.elf
                0x0400edc3                _ZPS_vNwkNibCheckAndUpdateChildren
 .text.ZPS_u16NwkNibFindNwkAddr
                0x0400ee35       0x7e temp.elf
                0x0400ee35                _ZPS_u16NwkNibFindNwkAddr
 .text.ZPS_u8NwkCalcNldeReqOverhead
                0x0400eeb3       0x3e temp.elf
                0x0400eeb3                _ZPS_u8NwkCalcNldeReqOverhead
 .text.eNldeDataDcfm
                0x0400eef1       0x30 temp.elf
 .text.ZPS_vNwkHandleNldeReqRsp
                0x0400ef21      0x1b8 temp.elf
                0x0400ef21                _ZPS_vNwkHandleNldeReqRsp
 .text.ZPS_vNwkHandleNlmeReqRsp
                0x0400f0d9      0x1ce temp.elf
                0x0400f0d9                _ZPS_vNwkHandleNlmeReqRsp
 .text.vPermitJoinHandleExpiry
                0x0400f2a7        0x9 temp.elf
 .text.zps_vNwkHandleCmePermitJoinReq
                0x0400f2b0       0x7d temp.elf
                0x0400f2b0                _zps_vNwkHandleCmePermitJoinReq
 .text.zps_vNwkPermitJoiningInit
                0x0400f32d       0x14 temp.elf
                0x0400f32d                _zps_vNwkPermitJoiningInit
 .text.zps_psNwkRtMatchNwkAddr
                0x0400f341       0x47 temp.elf
                0x0400f341                _zps_psNwkRtMatchNwkAddr
 .text.zps_vRemoveRoute
                0x0400f388       0x3c temp.elf
                0x0400f388                _zps_vRemoveRoute
 .text.zps_eNwkRtDiscMatch
                0x0400f3c4       0x68 temp.elf
                0x0400f3c4                _zps_eNwkRtDiscMatch
 .text.zps_eNwkRctMatchNwkAddr
                0x0400f42c       0x4c temp.elf
                0x0400f42c                _zps_eNwkRctMatchNwkAddr
 .text.zps_eNwkRtMatch
                0x0400f478       0xa1 temp.elf
                0x0400f478                _zps_eNwkRtMatch
 .text.eProcessRouteTbl
                0x0400f519      0x156 temp.elf
 .text.psSendRouteReplyCmd
                0x0400f66f       0xdc temp.elf
 .text.vSendRouteDiscoveryDcfm
                0x0400f74b       0x31 temp.elf
 .text.vFreePendingReqDescr
                0x0400f77c       0x4e temp.elf
 .text.zps_psNwkInitiateRouteDiscovery
                0x0400f7ca      0x120 temp.elf
                0x0400f7ca                _zps_psNwkInitiateRouteDiscovery
 .text.zps_vNwkHandleCmeRouteDiscoveryReq
                0x0400f8ea       0x85 temp.elf
                0x0400f8ea                _zps_vNwkHandleCmeRouteDiscoveryReq
 .text.eRouteRequestDataDcfm
                0x0400f96f       0x3e temp.elf
 .text.psNwkSendRouteRecordCmd
                0x0400f9ad      0x109 temp.elf
 .text.zps_vNwkHandleCmeStartRouterReq
                0x0400fab6       0x82 temp.elf
                0x0400fab6                _zps_vNwkHandleCmeStartRouterReq
 .text.vHandleRouteDiscoveryExpiry
                0x0400fb38       0x5c temp.elf
 .text.eRouteRecordDataDcfm
                0x0400fb94       0x29 temp.elf
 .text.zps_vNwkHandleCmeActvStartRouterReq
                0x0400fbbd       0x83 temp.elf
                0x0400fbbd                _zps_vNwkHandleCmeActvStartRouterReq
 .text.zps_eNwkHandleSceRouteRequest
                0x0400fc40      0x1d2 temp.elf
                0x0400fc40                _zps_eNwkHandleSceRouteRequest
 .text.zps_eNwkHandleSceRouteReply
                0x0400fe12      0x20e temp.elf
                0x0400fe12                _zps_eNwkHandleSceRouteReply
 .text.zps_eNwkHandleSceRouteRecord
                0x04010020       0xbd temp.elf
                0x04010020                _zps_eNwkHandleSceRouteRecord
 .text.zps_psProcessRoutedFrm
                0x040100dd       0xd9 temp.elf
                0x040100dd                _zps_psProcessRoutedFrm
 .text.zps_vExpireOldRoutes
                0x040101b6       0x5b temp.elf
                0x040101b6                _zps_vExpireOldRoutes
 .text.ZPS_bNwkSecCheckFC
                0x04010211       0x50 temp.elf
                0x04010211                _ZPS_bNwkSecCheckFC
 .text.ZPS_bNwkSecFindMatSet
                0x04010261       0x38 temp.elf
                0x04010261                _ZPS_bNwkSecFindMatSet
 .text.ZPS_bNwkSecCheckMatSet
                0x04010299       0x35 temp.elf
                0x04010299                _ZPS_bNwkSecCheckMatSet
 .text.ZPS_bNwkSecHaveNetworkKey
                0x040102ce       0x36 temp.elf
                0x040102ce                _ZPS_bNwkSecHaveNetworkKey
 .text.ZPS_vNwkSecResetDevice
                0x04010304       0x51 temp.elf
                0x04010304                _ZPS_vNwkSecResetDevice
 .text.zps_vNwkSecClearMatSet
                0x04010355       0x39 temp.elf
                0x04010355                _zps_vNwkSecClearMatSet
 .text.ZPS_bSecDecrypt
                0x0401038e       0xe5 temp.elf
                0x0401038e                _ZPS_bSecDecrypt
 .text.ZPS_bSecEncrypt
                0x04010473      0x1d4 temp.elf
                0x04010473                _ZPS_bSecEncrypt
 .text.zps_eNwkSecEncryptPacket
                0x04010647       0xb2 temp.elf
                0x04010647                _zps_eNwkSecEncryptPacket
 .text.zps_eNwkSecDecryptPacket
                0x040106f9      0x196 temp.elf
                0x040106f9                _zps_eNwkSecDecryptPacket
 .text.zps_eNwkActvStInit
                0x0401088f        0xa temp.elf
                0x0401088f                _zps_eNwkActvStInit
 .text.zps_vNwkActvStHandleCme
                0x04010899       0x31 temp.elf
                0x04010899                _zps_vNwkActvStHandleCme
 .text.zps_vNwkBttProcessPassiveAck
                0x040108ca       0x24 temp.elf
                0x040108ca                _zps_vNwkBttProcessPassiveAck
 .text.zps_eNwkBtrMatch
                0x040108ee       0xf1 temp.elf
                0x040108ee                _zps_eNwkBtrMatch
 .text.zps_vNwkBttMgrInit
                0x040109df       0x33 temp.elf
                0x040109df                _zps_vNwkBttMgrInit
 .text.vNwkBttTimerExpiry
                0x04010a12      0x123 temp.elf
 .text.zps_vNwkDiscUpdateNT
                0x04010b35       0x56 temp.elf
                0x04010b35                _zps_vNwkDiscUpdateNT
 .text.zps_vNwkHandleCmeNwkDiscReq
                0x04010b8b       0x7f temp.elf
                0x04010b8b                _zps_vNwkHandleCmeNwkDiscReq
 .text.eSmeASFlBeaconInd
                0x04010c0a       0x25 temp.elf
 .text.eSmeUDNTScanDcfm
                0x04010c2f       0x1c temp.elf
 .text.zps_eNwkDiscStInit
                0x04010c4b        0xa temp.elf
                0x04010c4b                _zps_eNwkDiscStInit
 .text.psAddToDiscNt
                0x04010c55      0x14c temp.elf
 .text.eSmeUDNTBeaconInd
                0x04010da1       0x31 temp.elf
 .text.eSmeAcScBeaconInd
                0x04010dd2       0xe7 temp.elf
 .text.eSmeEdScScanDcfm
                0x04010eb9       0x51 temp.elf
 .text.eSmeGenlScanDcfm
                0x04010f0a       0x5e temp.elf
 .text.eSmeAcScBeaconInd.394
                0x04010f68       0x68 temp.elf
 .text.zps_eNwkFormStInit
                0x04010fd0       0x18 temp.elf
                0x04010fd0                _zps_eNwkFormStInit
 .text.vSendDcfm
                0x04010fe8       0x2b temp.elf
 .text.eSmeAcScScanDcfm
                0x04011013      0x1cb temp.elf
 .text.eSmeEdScScanDcfm.395
                0x040111de       0x9b temp.elf
 .text.zps_psFormatCmdFrameGeneral
                0x04011279       0x7d temp.elf
                0x04011279                _zps_psFormatCmdFrameGeneral
 .text.zps_psAllocateAndFormatMacHdr
                0x040112f6      0x261 temp.elf
                0x040112f6                _zps_psAllocateAndFormatMacHdr
 .text.zps_psNwkInitCmdFrame
                0x04011557       0x7a temp.elf
                0x04011557                _zps_psNwkInitCmdFrame
 .text.zps_psSendFrm
                0x040115d1      0x21e temp.elf
                0x040115d1                _zps_psSendFrm
 .text.zps_psSendBroadcastFrm
                0x040117ef       0x97 temp.elf
                0x040117ef                _zps_psSendBroadcastFrm
 .text.zps_eDefaultDataDcfm
                0x04011886      0x179 temp.elf
                0x04011886                _zps_eDefaultDataDcfm
 .text.zps_vNwkIdleStHandleCme
                0x040119ff       0x30 temp.elf
                0x040119ff                _zps_vNwkIdleStHandleCme
 .text.bSetJoinCfmParams
                0x04011a2f       0x20 temp.elf
 .text.zps_psNwkSendRejoinRspCmd
                0x04011a4f       0x9b temp.elf
                0x04011a4f                _zps_psNwkSendRejoinRspCmd
 .text.zps_psNwkSendRejoinReqCmd
                0x04011aea       0x6a temp.elf
                0x04011aea                _zps_psNwkSendRejoinReqCmd
 .text.zps_eNwkHandleSceRejnResponse
                0x04011b54       0x66 temp.elf
                0x04011b54                _zps_eNwkHandleSceRejnResponse
 .text.zps_vJoinInitNtParent
                0x04011bba       0x94 temp.elf
                0x04011bba                _zps_vJoinInitNtParent
 .text.zps_vTidyActvNtAfterJoin
                0x04011c4e       0x7d temp.elf
                0x04011c4e                _zps_vTidyActvNtAfterJoin
 .text.zps_eNwkSendJoinResponse
                0x04011ccb       0xe0 temp.elf
                0x04011ccb                _zps_eNwkSendJoinResponse
 .text.zps_eNwkProcessJoinInd
                0x04011dab       0xfa temp.elf
                0x04011dab                _zps_eNwkProcessJoinInd
 .text.zps_eNwkHandleSmeAssocInd
                0x04011ea5       0x2d temp.elf
                0x04011ea5                _zps_eNwkHandleSmeAssocInd
 .text.zps_eNwkHandleSmeOrphanInd
                0x04011ed2       0xe0 temp.elf
                0x04011ed2                _zps_eNwkHandleSmeOrphanInd
 .text.zps_vNwkHandleCmeNwkJoinReq
                0x04011fb2      0x1cf temp.elf
                0x04011fb2                _zps_vNwkHandleCmeNwkJoinReq
 .text.zps_vNwkHandleCmeNwkActvJoinReq
                0x04012181        0xf temp.elf
                0x04012181                _zps_vNwkHandleCmeNwkActvJoinReq
 .text.zps_u8NwkHandleRejoinReq
                0x04012190       0xc1 temp.elf
                0x04012190                _zps_u8NwkHandleRejoinReq
 .text.zps_vSendJoinInd
                0x04012251       0x65 temp.elf
                0x04012251                _zps_vSendJoinInd
 .text.zps_eNwkHandleSmeCommStatusInd
                0x040122b6       0xa8 temp.elf
                0x040122b6                _zps_eNwkHandleSmeCommStatusInd
 .text.eRejoinRspDataDcfm
                0x0401235e       0x7b temp.elf
 .text.zps_vSendJoinDcfm
                0x040123d9       0x4e temp.elf
                0x040123d9                _zps_vSendJoinDcfm
 .text.zps_eNwkHandleSceRejnRequest
                0x04012427       0x4d temp.elf
                0x04012427                _zps_eNwkHandleSceRejnRequest
 .text.vContinueRejoin
                0x04012474       0xb0 temp.elf
 .text.zps_eNwkJoinStInit
                0x04012524        0xa temp.elf
                0x04012524                _zps_eNwkJoinStInit
 .text.vGiveUp  0x0401252e       0x31 temp.elf
 .text.vFinish  0x0401255f       0x65 temp.elf
 .text.vCheckSleepingSendPoll
                0x040125c4       0x7c temp.elf
 .text.zps_vNwkJoinStStartResponseTimer
                0x04012640       0x36 temp.elf
                0x04012640                _zps_vNwkJoinStStartResponseTimer
 .text.eTryNextParent
                0x04012676      0x150 temp.elf
                0x04012676                _eTryNextParent
 .text.vHandleRejoinExpiry
                0x040127c6       0x52 temp.elf
 .text.eSmeOrphScanDcfm
                0x04012818       0x5b temp.elf
 .text.eSmeAsocAssocDcfm
                0x04012873       0x74 temp.elf
 .text.eSmeRjPCPollDcfm
                0x040128e7       0x68 temp.elf
 .text.eSceRjRsRejoinRsp
                0x0401294f       0xbc temp.elf
 .text.zps_eRejoinDataDcfm
                0x04012a0b       0x3f temp.elf
                0x04012a0b                _zps_eRejoinDataDcfm
 .text.zps_psNwkSendLeaveCmd
                0x04012a4a       0x66 temp.elf
                0x04012a4a                _zps_psNwkSendLeaveCmd
 .text.zps_psNwkPropagateLocalLeave
                0x04012ab0       0x36 temp.elf
                0x04012ab0                _zps_psNwkPropagateLocalLeave
 .text.zps_vNwkHandleCmeLeaveReq
                0x04012ae6       0xcc temp.elf
                0x04012ae6                _zps_vNwkHandleCmeLeaveReq
 .text.vSendLeaveInd
                0x04012bb2       0x39 temp.elf
 .text.zps_eNwkHandleSceLeave
                0x04012beb       0xe8 temp.elf
                0x04012beb                _zps_eNwkHandleSceLeave
 .text.eLeaveReset
                0x04012cd3       0x49 temp.elf
 .text.eLeaveDataDcfm
                0x04012d1c       0x86 temp.elf
 .text.zps_eSceGenlIllegal
                0x04012da2        0x7 temp.elf
                0x04012da2                _zps_eSceGenlIllegal
 .text.zps_vInitBeaconPayload
                0x04012da9       0x80 temp.elf
                0x04012da9                _zps_vInitBeaconPayload
 .text.zps_sNwkStart
                0x04012e29       0x9d temp.elf
                0x04012e29                _zps_sNwkStart
 .text.zps_eSmeGenlIllegal
                0x04012ec6        0x7 temp.elf
                0x04012ec6                _zps_eSmeGenlIllegal
 .text.zps_u8CalcLinkCost
                0x04012ecd       0x55 temp.elf
                0x04012ecd                _zps_u8CalcLinkCost
 .text.eSendLinkStatusDataDcfm
                0x04012f22      0x11c temp.elf
 .text.zps_vAgeRouter
                0x0401303e       0x76 temp.elf
                0x0401303e                _zps_vAgeRouter
 .text.zps_vLinkStatusHandleExpiry
                0x040130b4       0x74 temp.elf
                0x040130b4                _zps_vLinkStatusHandleExpiry
 .text.zps_vAddToSortedActiveNtList
                0x04013128       0x49 temp.elf
                0x04013128                _zps_vAddToSortedActiveNtList
 .text.zps_eNwkHandleSceLinkStatus
                0x04013171      0x100 temp.elf
                0x04013171                _zps_eNwkHandleSceLinkStatus
 .text.MAC_u64GetExtAddr
                0x04013271       0x1b temp.elf
                0x04013271                _MAC_u64GetExtAddr
 .text.eCheckAddrConflict
                0x0401328c       0x68 temp.elf
 .text.zps_eNwkHandleSceNwkUpdate
                0x040132f4       0x2a temp.elf
                0x040132f4                _zps_eNwkHandleSceNwkUpdate
 .text.zps_psSendNetworkUpdateCmd
                0x0401331e       0xc6 temp.elf
                0x0401331e                _zps_psSendNetworkUpdateCmd
 .text.zps_psSendNetworkReportCmd
                0x040133e4       0xde temp.elf
                0x040133e4                _zps_psSendNetworkReportCmd
 .text.vSendNetworkReport
                0x040134c2        0x6 temp.elf
 .text.zps_psSendNetworkStatusCmd
                0x040134c8       0x82 temp.elf
                0x040134c8                _zps_psSendNetworkStatusCmd
 .text.zps_eNwkHandleSceNwkReport
                0x0401354a       0x24 temp.elf
                0x0401354a                _zps_eNwkHandleSceNwkReport
 .text.zps_vNwkRemoveConflictedBroadcast
                0x0401356e       0x54 temp.elf
                0x0401356e                _zps_vNwkRemoveConflictedBroadcast
 .text.zps_vProcessChildAddrConflict
                0x040135c2       0xc8 temp.elf
                0x040135c2                _zps_vProcessChildAddrConflict
 .text.zps_vSendNwkStatusInd
                0x0401368a       0x31 temp.elf
                0x0401368a                _zps_vSendNwkStatusInd
 .text.zps_vProcessLocalAddrConflict
                0x040136bb       0xeb temp.elf
                0x040136bb                _zps_vProcessLocalAddrConflict
 .text.vHandleNwkLocalUpdateAfterBcast
                0x040137a6       0x6d temp.elf
 .text.vSendNetworkUpdate
                0x04013813       0x97 temp.elf
 .text.vHandleNwkRemoteUpdateAfterBcast
                0x040138aa       0x6b temp.elf
 .text.zps_eProcessAddrConflict
                0x04013915      0x162 temp.elf
                0x04013915                _zps_eProcessAddrConflict
 .text.zps_eNwkHandleSmeBeaconNotifyInd
                0x04013a77       0x7f temp.elf
                0x04013a77                _zps_eNwkHandleSmeBeaconNotifyInd
 .text.zps_eNwkHandleSceNwkStatus
                0x04013af6      0x107 temp.elf
                0x04013af6                _zps_eNwkHandleSceNwkStatus
 .text.eUnsolicitedRejoinRspDataDcfm
                0x04013bfd       0x2c temp.elf
 .text.zps_sNwkLibSubmitScan
                0x04013c29       0x45 temp.elf
                0x04013c29                _zps_sNwkLibSubmitScan
 .text.zps_vNwkHandleCmeEdScanReq
                0x04013c6e       0x45 temp.elf
                0x04013c6e                _zps_vNwkHandleCmeEdScanReq
 .text.zps_eNwkHandleSmePollDcfm
                0x04013cb3       0x30 temp.elf
                0x04013cb3                _zps_eNwkHandleSmePollDcfm
 .text.zps_vNwkHandleCmeSyncReq
                0x04013ce3       0x4b temp.elf
                0x04013ce3                _zps_vNwkHandleCmeSyncReq
 .text.zps_vNwkHandleCmeNwkFormReq
                0x04013d2e       0xa3 temp.elf
                0x04013d2e                _zps_vNwkHandleCmeNwkFormReq
 .text.zps_vNwkHandleCmeIdleNwkFormReq
                0x04013dd1        0x8 temp.elf
                0x04013dd1                _zps_vNwkHandleCmeIdleNwkFormReq
 .text.ZPS_vNwkHandleMcpsDcfmInd
                0x04013dd9       0xbe temp.elf
                0x04013dd9                _ZPS_vNwkHandleMcpsDcfmInd
 .text.ZPS_eTsvClose
                0x04013e97        0x6 temp.elf
                0x04013e97                _ZPS_eTsvClose
 .text.ZPS_vTsvInit
                0x04013e9d        0xf temp.elf
                0x04013e9d                _ZPS_vTsvInit
 .text.ZPS_eTsvOpen
                0x04013eac       0x12 temp.elf
                0x04013eac                _ZPS_eTsvOpen
 .text.ZPS_eTsvStop
                0x04013ebe       0x55 temp.elf
                0x04013ebe                _ZPS_eTsvStop
 .text.ZPS_eTsvStart
                0x04013f13       0x60 temp.elf
                0x04013f13                _ZPS_eTsvStart
 .text.AESSW_bCCMstar
                0x04013f73      0x2c1 temp.elf
                0x04013f73                _AESSW_bCCMstar
 .text.AESSW_vHMAC_MMO
                0x04014234       0xb0 temp.elf
                0x04014234                _AESSW_vHMAC_MMO
 .text.AESSW_vMMOBlockUpdate
                0x040142e4       0x46 temp.elf
                0x040142e4                _AESSW_vMMOBlockUpdate
 .text.AESSW_vMMOFinalUpdate
                0x0401432a       0xcf temp.elf
                0x0401432a                _AESSW_vMMOFinalUpdate
 .text.PDUM_eNPduClone
                0x040143f9       0x4d temp.elf
                0x040143f9                _PDUM_eNPduClone
 .text.PDUM_thAPduInstanceGetApdu
                0x04014446       0x1b temp.elf
                0x04014446                _PDUM_thAPduInstanceGetApdu
 .text.481      0x04014461        0x0 temp.elf
                0x04014461                PDUM_Version_1v1
 .text.DBG_vInit
                0x04014461       0x39 temp.elf
                0x04014461                _DBG_vInit
 .text.dbg_vPrintfImpl
                0x0401449a      0x47a temp.elf
                0x0401449a                _dbg_vPrintfImpl
 .text.DBG_vUartFailedAssert
                0x04014914       0x14 temp.elf
                0x04014914                _DBG_vUartFailedAssert
 .text.DBG_vUartInit
                0x04014928       0x94 temp.elf
                0x04014928                _DBG_vUartInit
 .text.DBG_vDumpStack
                0x040149bc       0x63 temp.elf
                0x040149bc                _DBG_vDumpStack
 .text.eWBRTTxDonePatch
                0x04014a1f       0x24 temp.elf
 .text.eScanHandleEvtPatched
                0x04014a43       0x51 temp.elf
                0x04014a43                _eScanHandleEvtPatched
 .text.bTACprocessUnexpectedBeaconPatched
                0x04014a94       0x11 temp.elf
                0x04014a94                _bTACprocessUnexpectedBeaconPatched
 .text.pvAppApiGetMacHandle
                0x04014aa5       0x16 temp.elf
                0x04014aa5                _pvAppApiGetMacHandle
 .text.u32AppApiInit
                0x04014abb      0x120 temp.elf
                0x04014abb                _u32AppApiInit
 .text.bTACprocessFrameRXcompletePatch
                0x04014bdb       0x71 temp.elf
 .text.pvAppApiGetMacAddrLocation
                0x04014c4c       0x16 temp.elf
                0x04014c4c                _pvAppApiGetMacAddrLocation
 .text.vTAMDEint1FiredTrackingBeaconPatch
                0x04014c62       0xcf temp.elf
 .text.MAC_vPibSetMinBe
                0x04014d31       0x48 temp.elf
                0x04014d31                _MAC_vPibSetMinBe
 .text.vTSCsetOutgoingInfo_Patched
                0x04014d79       0xca temp.elf
                0x04014d79                _vTSCsetOutgoingInfo_Patched
 .text.vXCV_IntHandlerPhyPatch
                0x04014e43       0xca temp.elf
                0x04014e43                _vXCV_IntHandlerPhyPatch
 .text.vMlmeCallbackPatch
                0x04014f0d       0x45 temp.elf
 .text.vBbcIdleBugWorkaround
                0x04014f52       0x22 temp.elf
 .text.vTAMDEint1FiredTrackingPatch
                0x04014f74       0x95 temp.elf
                0x04014f74                _vTAMDEint1FiredTrackingPatch
 .text.vPhySetChannelPatch
                0x04015009       0x34 temp.elf
                0x04015009                _vPhySetChannelPatch
 .text.vExpireHead
                0x0401503d       0x37 temp.elf
 .text.TSV_eExpireProcPatch
                0x04015074       0x2f temp.elf
                0x04015074                _TSV_eExpireProcPatch
 .text.XCV_vCtorPatch
                0x040150a3      0x14b temp.elf
                0x040150a3                _XCV_vCtorPatch
 .text.eWBcnRxDonePatch
                0x040151ee       0x7c temp.elf
 .text.vScan2006PostDcfm
                0x0401526a       0x9e temp.elf
 .text.eGenTmrExpiryPatch
                0x04015308       0x6b temp.elf
 .text.vXCV_IntHandlerBbcPatch
                0x04015373      0x173 temp.elf
 .text.bAHI_WatchdogResetEvent
                0x040154e6       0x1b temp.elf
                0x040154e6                _bAHI_WatchdogResetEvent
 .text.bAHI_RndNumPoll
                0x04015501       0x2a temp.elf
                0x04015501                _bAHI_RndNumPoll
 .text.vSetBit.505
                0x0401552b       0x15 temp.elf
 .text.vAHI_SetStackOverflow
                0x04015540       0x1f temp.elf
                0x04015540                _vAHI_SetStackOverflow
 .text.vAHI_StartRandomNumberGenerator
                0x0401555f       0x50 temp.elf
                0x0401555f                _vAHI_StartRandomNumberGenerator
 .text.vAHI_Sleep
                0x040155af       0xf9 temp.elf
                0x040155af                _vAHI_Sleep
 .text.bAHI_FlashInit
                0x040156a8       0xd1 temp.elf
                0x040156a8                _bAHI_FlashInit
 .text.u32AHI_WakeTimerCalibrate
                0x04015779       0x3a temp.elf
                0x04015779                _u32AHI_WakeTimerCalibrate
 .text.vAHI_UartSetRTSCTS
                0x040157b3       0x2b temp.elf
                0x040157b3                _vAHI_UartSetRTSCTS
 .text.vAHI_DioWakeEnable
                0x040157de       0x20 temp.elf
                0x040157de                _vAHI_DioWakeEnable
 .text.vAHI_DioSetPullup
                0x040157fe       0x20 temp.elf
                0x040157fe                _vAHI_DioSetPullup
 .text.vAHI_DioWakeEdge
                0x0401581e       0x20 temp.elf
                0x0401581e                _vAHI_DioWakeEdge
 .text.u32AHI_DioWakeStatus
                0x0401583e       0x16 temp.elf
                0x0401583e                _u32AHI_DioWakeStatus
 .text.528      0x04015854      0x257 temp.elf
                0x04015854                _vLcdClear
                0x040158f6                _vLcdGrabSpiBus
                0x0401592d                _vLcdSendData
                0x0401595d                _vLcdRefreshAll
                0x04015a30                _vLcdReset
                0x040158e4                _vLcdFreeSpiBus
                0x0401593f                _vLcdSendCommand
                0x0401586c                _vLcdWriteBitmap
                0x040158e7                _vLcdSetCDline
                0x04015a27                _vLcdWriteInvertedText
                0x04015a2c                _vLcdWriteText
                0x0401591b                _vLcdSendData32
                0x04015aa1                _vLcdResetDefault
 .text.532      0x04015aab      0x179 temp.elf
                0x04015ac6                _vLcdScrollUp
                0x04015b92                _vLcdStop
                0x04015b72                _vLcdWriteTextToClearLine
                0x04015b9b                _vLcdRefreshArea
                0x04015aab                _vLcdClearLine
                0x04015b32                _vLcdWriteTextRightJustified
 .text.536      0x04015c24       0x3e temp.elf
                0x04015c24                _vLcdFontReset
                0x04015c27                _pu8LcdFontGetChar
 .text.PWRM_eFinishActivity
                0x04015c62       0x21 temp.elf
                0x04015c62                _PWRM_eFinishActivity
 .text.PWRM_u16GetActivityCount
                0x04015c83        0xc temp.elf
                0x04015c83                _PWRM_u16GetActivityCount
 .text.594      0x04015c8f       0x3b temp.elf
                0x04015c8f                _strncmp
 .text.599      0x04015cca       0x2f temp.elf
                0x04015cca                _strncpy
                0x04015cf9                _text_end = <code 342> (.)
                0x04015cf9                _data_end = <code 342> (.)
                0x00014ffc                _data_len = (((_data_end - _data_beg) + 0x3) & 0xfffffffc)
                0x04015cfc                _overlay_start = <code 342> (ALIGN (0x4))
                0x04015cfc                _overlay_end = <code 342> (ALIGN (0x4))
                0x00000000                _overlays = 0x0

.overlay_location
                0x04015d00        0x0
                0x00000000                _overlay_len = 0x0
                0x04015d00                _overlay_lma = ((((ADDR (.overlay_location) + SIZEOF (.overlay_location)) - _enc_offset) ALIGN 0x10) + _enc_offset)
                0x02001000                _apvReg = 0x2001000
                0x02001000                _apvSysReg = 0x2001000
                0x02001c00                _apvAesReg = 0x2001c00
                0x02001f00                _apvAnaReg = 0x2001f00
                0x02002000                _apvGpioReg = 0x2002000
                0x02003000                _apvUart0Reg = 0x2003000
                0x02004000                _apvUart1Reg = 0x2004000
                0x02005000                _apvTimer0Reg = 0x2005000
                0x02006000                _apvTimer1Reg = 0x2006000
                0x0200a000                _apvTimer2Reg = 0x200a000
                0x02007000                _apvSiReg = 0x2007000
                0x02008000                _apvSpiReg = 0x2008000
                0x02009000                _apvSpiIpReg = 0x2009000
                0x02009800                _apvSpiIpMem = 0x2009800
                0x0200b000                _apvDaiReg = 0x200b000
                0x0200c000                _apvSfifoReg = 0x200c000
                0x00015030                _overlay_location = (ADDR (.overlay_location) - _flash_beg)
                0x04015cfc                _overlay_end = (_overlay_start + _overlay_len)
                0x04015cfc                . = _overlay_end
                0x00000001                ASSERT ((_overlays < 0x800), Too many overlays)

.bss            0x04015cfc     0x3f28
                0x04015cfc                _bss_beg = <code 342> (.)
                0x04015cfc                _bss_start = <code 342> (.)
 *(.bss*)
 .bss.s_aMessageData_zps_msgMlmeDcfmInd
                0x04015cfc      0x750 temp.elf
 .bss.s_aMessageData_zps_msgTimeEvents
                0x0401644c       0x60 temp.elf
 .bss.s_aMessageData_zps_msgMcpsDcfmInd
                0x040164ac      0x120 temp.elf
 *fill*         0x040165cc        0x4 00
 .bss.s_aMessageData_APP_msgZpsEvents
                0x040165d0       0xd0 temp.elf
 .bss.s_aMessageData_APP_msgButtonEvent
                0x040166a0       0x20 temp.elf
 .bss.s_aMessageData_APP_msgSensorEvent
                0x040166c0       0xd0 temp.elf
 .bss.s_aMessageData_APP_msgLedEvent
                0x04016790       0xd0 temp.elf
 .bss.s_asNPduPool
                0x04016860      0x880 temp.elf
 .bss.s_au8apduZDPInstance0Storage
                0x040170e0       0x64 temp.elf
 .bss.s_au8apduZDPInstance1Storage
                0x04017144       0x64 temp.elf
 .bss.s_au8apduZDPInstance2Storage
                0x040171a8       0x64 temp.elf
 .bss.s_au8apduSensorDataInstance0Storage
                0x0401720c        0xd temp.elf
 .bss.s_au8apduSensorDataInstance1Storage
                0x04017219        0xd temp.elf
 .bss.s_au8apduSensorDataInstance2Storage
                0x04017226        0xd temp.elf
 .bss.s_au8apduSensorDataInstance3Storage
                0x04017233        0xd temp.elf
 .bss.s_au8apduLedControlInstance0Storage
                0x04017240        0xa temp.elf
 .bss.s_au8apduLedControlInstance1Storage
                0x0401724a        0xa temp.elf
 .bss.s_au8apduLedControlInstance2Storage
                0x04017254        0xa temp.elf
 .bss.s_au8apduLedControlInstance3Storage
                0x0401725e        0xa temp.elf
 .bss.s_au8apduLedControlInstance4Storage
                0x04017268        0xa temp.elf
 *fill*         0x04017272        0x2 00
 .bss.s_sDefaultServerContext
                0x04017274        0x8 temp.elf
 .bss.s_sZdoClientContext
                0x0401727c        0x8 temp.elf
 .bss.s_sDeviceAnnceServerContext
                0x04017284        0x0 temp.elf
 .bss.s_sActiveEpServerContext
                0x04017284        0x8 temp.elf
 .bss.s_sNwkAddrServerContext
                0x0401728c        0x8 temp.elf
 .bss.s_sIeeeAddrServerContext
                0x04017294        0x8 temp.elf
 .bss.s_sSystemServerDiscoveryServerContext
                0x0401729c        0x8 temp.elf
 .bss.s_sNodeDescServerContext
                0x040172a4        0x8 temp.elf
 .bss.s_sPowerDescServerContext
                0x040172ac        0x8 temp.elf
 .bss.s_sMatchDescServerContext
                0x040172b4        0x8 temp.elf
 .bss.s_sSimpleDescServerContext
                0x040172bc        0x8 temp.elf
 .bss.s_sMgmtLqiServerContext
                0x040172c4        0x8 temp.elf
 .bss.s_sMgmtLeaveServerContext
                0x040172cc       0x28 temp.elf
 .bss.s_sMgmtNWKUpdateServerContext
                0x040172f4       0x40 temp.elf
 .bss.s_sPermitJoiningServerContext
                0x04017334        0x8 temp.elf
 .bss.s_sMgmtRtgServerContext
                0x0401733c        0x8 temp.elf
 .bss.s_sEndDeviceBindServerContext
                0x04017344       0x40 temp.elf
 .bss.s_sNwkContext
                0x04017384      0x6e0 temp.elf
 *fill*         0x04017a64        0x4 00
 .bss.s_asNwkInFCSet
                0x04017a68      0x2a0 temp.elf
 .bss.s_asApsSyncMsgPool
                0x04017d08      0x4b0 temp.elf
 .bss.s_asApsDcfmRecordPool
                0x040181b8       0xf0 temp.elf
 .bss.s_asNwkNtDisc
                0x040182a8      0x180 temp.elf
 .bss.s_asNwkNtActv
                0x04018428      0x2a0 temp.elf
 .bss.s_asNwkRtDisc
                0x040186c8      0x240 temp.elf
 .bss.s_asNwkRt
                0x04018908       0x80 temp.elf
 .bss.s_asNwkBtt
                0x04018988       0xa0 temp.elf
 .bss.s_asNwkRct
                0x04018a28      0x100 temp.elf
 .bss.s_asNwkSecMatSet
                0x04018b28       0x40 temp.elf
 .bss.s_au16NwkAddrMapNwk
                0x04018b68       0x20 temp.elf
 .bss.s_au64NwkAddrMapExt
                0x04018b88       0x80 temp.elf
 .bss.s_au8Endpoint0InputClusterDiscFlags
                0x04018c08        0xb temp.elf
 .bss.s_au8Endpoint0OutputClusterDiscFlags
                0x04018c13        0xb temp.elf
 .bss.s_au16ApsDuplicateTableAddrs
                0x04018c1e        0x2 temp.elf
 .bss.s_au32ApsDuplicateTableHash
                0x04018c20        0x4 temp.elf
 .bss.s_au8ApsDuplicateTableSeqCnts
                0x04018c24        0x1 temp.elf
 *fill*         0x04018c25        0x3 00
 .bss.s_asTrustCenterDeviceTable
                0x04018c28       0x50 temp.elf
 .bss.s_asRequestKeyRequests
                0x04018c78       0x60 temp.elf
 .bss.s_sApsmeCmdContainer_4
                0x04018cd8       0x38 temp.elf
 .bss.s_u32CompareTime
                0x04018d10        0x4 temp.elf
 .bss.s_u32LastExpiredTime
                0x04018d14        0x4 temp.elf
 .bss.APP_bAppHealthy
                0x04018d18        0x1 temp.elf
                0x04018d18                _APP_bAppHealthy
 .bss.s_u8CurCharPos.2328
                0x04018d19        0x1 temp.elf
 .bss.s_u8CurPixPos.2327
                0x04018d1a        0x1 temp.elf
 .bss.s_u8CurrentNode
                0x04018d1b        0x1 temp.elf
 .bss.s_UpdatePending
                0x04018d1c        0x1 temp.elf
 *fill*         0x04018d1d        0x3 00
 .bss.s_ePrevDisplayState.2242
                0x04018d20        0x4 temp.elf
 .bss.s_u8CurrentTime
                0x04018d24        0x1 temp.elf
 *fill*         0x04018d25        0x3 00
 .bss.s_asNodeHistoryData
                0x04018d28      0x100 temp.elf
 .bss.s_sLogNodes
                0x04018e28       0x48 temp.elf
 .bss.s_u8ButtonState
                0x04018e70        0x4 temp.elf
 .bss.s_hAPduInst.7929
                0x04018e74        0x4 temp.elf
 .bss.u8SeqNum.7938
                0x04018e78        0x1 temp.elf
 *fill*         0x04018e79        0x3 00
 .bss.s_sDevice
                0x04018e7c        0x8 temp.elf
 .bss.sRxQueue  0x04018e84      0x404 temp.elf
 .bss.sTxQueue  0x04019288      0x404 temp.elf
 .bss.Uart_Opened
                0x0401968c        0x2 temp.elf
 *fill*         0x0401968e        0x2 00
 .bss.pwrm_psWakeupCallbacks
                0x04019690        0x4 temp.elf
                0x04019690                _pwrm_psWakeupCallbacks
 .bss.s_pu8Stack
                0x04019694        0x4 temp.elf
 .bss.s_pu8StackDst
                0x04019698        0x4 temp.elf
 .bss.s_hPdmMutex
                0x0401969c        0x4 temp.elf
 .bss.gpsListHead
                0x040196a0        0x4 temp.elf
 .bss.gu16NumRecordsInNvm
                0x040196a4        0x2 temp.elf
 .bss.gu16FirstChangesetOffset
                0x040196a6        0x2 temp.elf
 .bss.gu16LastChangesetOffset
                0x040196a8        0x2 temp.elf
 .bss.gu16NextChangesetOffset
                0x040196aa        0x2 temp.elf
 .bss.gu16NumChangesets
                0x040196ac        0x2 temp.elf
 .bss.gu16NumRecordsInRam
                0x040196ae        0x2 temp.elf
 .bss.gbNeedsPurge
                0x040196b0        0x1 temp.elf
 *fill*         0x040196b1        0x3 00
 .bss.s_hPdmMediaMutex
                0x040196b4        0x4 temp.elf
 .bss.gu32MaxBlockSize
                0x040196b8        0x4 temp.elf
 .bss.s_bIsInit
                0x040196bc        0x1 temp.elf
 *fill*         0x040196bd        0x3 00
 .bss.gpsNvmFlashFuncTable
                0x040196c0        0x4 temp.elf
 .bss.gsLastChangesetHeader
                0x040196c4        0x8 temp.elf
 *fill*         0x040196cc        0x4 00
 .bss.g_u64NoncePart1
                0x040196d0        0x8 temp.elf
 .bss.g_u32WaterMark
                0x040196d8        0x4 temp.elf
 .bss.g_psKey   0x040196dc        0x4 temp.elf
 .bss.s_psMacDcfmInd
                0x040196e0        0x4 temp.elf
 .bss.s_psVsMcpsDcfmInd
                0x040196e4        0x4 temp.elf
 .bss.bLocked.9145
                0x040196e8        0x4 temp.elf
 .bss.bAddrMatch.5052
                0x040196ec        0x1 temp.elf
 *fill*         0x040196ed        0x3 00
 .bss.s_hMutex  0x040196f0        0x4 temp.elf
 .bss.s_prExpireFn
                0x040196f4        0x4 temp.elf
 .bss.aprTofVectorRamTable
                0x040196f8       0x24 temp.elf
                0x040196f8                _aprTofVectorRamTable
 .bss.b2003SecurityCompatibility
                0x0401971c        0x1 temp.elf
                0x0401971c                _b2003SecurityCompatibility
 *fill*         0x0401971d        0x3 00
 .bss.prvUserTxStartedCallback
                0x04019720        0x4 temp.elf
                0x04019720                _prvUserTxStartedCallback
 *(.scommon*)
 COMMON         0x04019724      0x500 temp.elf
                0x04019724                _s_sDevicePDDesc
                0x04019768                _s_u16ActivityCounter
                0x0401976c                _sBbcIdleBugTimer
                0x0401977c                _bCheckChild
                0x04019780                _prHigherMlmeCallback
                0x04019784                _ba_redzone_size
                0x04019788                _pwrm_CPUContext
                0x040197c4                _au8Shadow
                0x04019bc4                _app_eDisplayState
                0x04019bc8                _s_sLogPDDesc
                0x04019c0c                _app_eCurrentSensor
                0x04019c10                _zps_psNwk
                0x04019c14                _ba_abi_level
                0x04019c18                _psActiveMsgListHead
                0x04019c1c                _psFreeMsgListHead
                0x04019c20                _eState
                0x04019c24                _bss_end = <code 342> (.)

.heap           0x04019c24      0x800
                0x04019c24                _heap_start = <code 342> (.)
                0x0401a424                . = (. + _minimum_heap_size)
 *fill*         0x04019c24      0x800 00

.stack          0x0401ec00     0x1400
                0x0401ec00                _heap_end = <code 342> (.)
                0x0401ec00                _stack_low_water_mark = <code 342> (.)
                0x04020000                . = (. + _stack_size)
 *fill*         0x0401ec00     0x1400 00
                0x00000001                ASSERT (((((_heap_start - 0x4000000) + _minimum_heap_size) + _stack_size) <= 0x20000), RAM Exhausted)

.stab           0x00000000     0x15d8
 *(.stab)
 .stab          0x00000000      0x2d0 temp.elf
                                0x3e4 (size before relaxing)
 *(.stab.*)
 .stab.568      0x000002d0      0x6d8 temp.elf
 .stab.576      0x000009a8      0x150 temp.elf
 .stab.582      0x00000af8      0x360 temp.elf
 .stab.587      0x00000e58      0x1b0 temp.elf
 .stab.592      0x00001008      0x1e0 temp.elf
 .stab.597      0x000011e8      0x1e0 temp.elf
 .stab.602      0x000013c8      0x210 temp.elf

.comment        0x00000000      0x8a6
 *(.comment*)
 .comment       0x00000000       0x12 temp.elf
 .comment.22    0x00000012       0x12 temp.elf
 .comment.26    0x00000024       0x12 temp.elf
 .comment.30    0x00000036       0x12 temp.elf
 .comment.34    0x00000048       0x12 temp.elf
 .comment.39    0x0000005a       0x12 temp.elf
 .comment.44    0x0000006c       0x12 temp.elf
 .comment.48    0x0000007e       0x12 temp.elf
 .comment.53    0x00000090       0x12 temp.elf
 .comment.58    0x000000a2       0x12 temp.elf
 .comment.63    0x000000b4       0x12 temp.elf
 .comment.67    0x000000c6       0x12 temp.elf
 .comment.72    0x000000d8       0x12 temp.elf
 .comment.76    0x000000ea       0x12 temp.elf
 .comment.86    0x000000fc       0x12 temp.elf
 .comment.93    0x0000010e       0x12 temp.elf
 .comment.97    0x00000120       0x12 temp.elf
 .comment.101   0x00000132       0x12 temp.elf
 .comment.105   0x00000144       0x12 temp.elf
 .comment.112   0x00000156       0x12 temp.elf
 .comment.117   0x00000168       0x12 temp.elf
 .comment.121   0x0000017a       0x12 temp.elf
 .comment.125   0x0000018c       0x12 temp.elf
 .comment.130   0x0000019e       0x12 temp.elf
 .comment.135   0x000001b0       0x12 temp.elf
 .comment.140   0x000001c2       0x12 temp.elf
 .comment.145   0x000001d4       0x12 temp.elf
 .comment.149   0x000001e6       0x12 temp.elf
 .comment.154   0x000001f8       0x12 temp.elf
 .comment.158   0x0000020a       0x12 temp.elf
 .comment.162   0x0000021c       0x12 temp.elf
 .comment.167   0x0000022e       0x12 temp.elf
 .comment.172   0x00000240       0x12 temp.elf
 .comment.177   0x00000252       0x12 temp.elf
 .comment.182   0x00000264       0x12 temp.elf
 .comment.187   0x00000276       0x12 temp.elf
 .comment.192   0x00000288       0x12 temp.elf
 .comment.197   0x0000029a       0x12 temp.elf
 .comment.202   0x000002ac       0x12 temp.elf
 .comment.207   0x000002be       0x12 temp.elf
 .comment.212   0x000002d0       0x12 temp.elf
 .comment.217   0x000002e2       0x12 temp.elf
 .comment.222   0x000002f4       0x12 temp.elf
 .comment.227   0x00000306       0x12 temp.elf
 .comment.232   0x00000318       0x12 temp.elf
 .comment.237   0x0000032a       0x12 temp.elf
 .comment.242   0x0000033c       0x12 temp.elf
 .comment.246   0x0000034e       0x12 temp.elf
 .comment.251   0x00000360       0x12 temp.elf
 .comment.256   0x00000372       0x12 temp.elf
 .comment.261   0x00000384       0x12 temp.elf
 .comment.266   0x00000396       0x12 temp.elf
 .comment.271   0x000003a8       0x12 temp.elf
 .comment.276   0x000003ba       0x12 temp.elf
 .comment.281   0x000003cc       0x12 temp.elf
 .comment.286   0x000003de       0x12 temp.elf
 .comment.291   0x000003f0       0x12 temp.elf
 .comment.296   0x00000402       0x12 temp.elf
 .comment.300   0x00000414       0x12 temp.elf
 .comment.305   0x00000426       0x12 temp.elf
 .comment.310   0x00000438       0x12 temp.elf
 .comment.314   0x0000044a       0x12 temp.elf
 .comment.319   0x0000045c       0x12 temp.elf
 .comment.323   0x0000046e       0x12 temp.elf
 .comment.330   0x00000480       0x12 temp.elf
 .comment.334   0x00000492       0x12 temp.elf
 .comment.339   0x000004a4       0x12 temp.elf
 .comment.343   0x000004b6       0x12 temp.elf
 .comment.348   0x000004c8       0x12 temp.elf
 .comment.352   0x000004da       0x12 temp.elf
 .comment.356   0x000004ec       0x12 temp.elf
 .comment.360   0x000004fe       0x12 temp.elf
 .comment.365   0x00000510       0x12 temp.elf
 .comment.370   0x00000522       0x12 temp.elf
 .comment.374   0x00000534       0x12 temp.elf
 .comment.378   0x00000546       0x12 temp.elf
 .comment.382   0x00000558       0x12 temp.elf
 .comment.386   0x0000056a       0x12 temp.elf
 .comment.390   0x0000057c       0x12 temp.elf
 .comment.396   0x0000058e       0x12 temp.elf
 .comment.401   0x000005a0       0x12 temp.elf
 .comment.405   0x000005b2       0x12 temp.elf
 .comment.410   0x000005c4       0x12 temp.elf
 .comment.414   0x000005d6       0x12 temp.elf
 .comment.419   0x000005e8       0x12 temp.elf
 .comment.423   0x000005fa       0x12 temp.elf
 .comment.427   0x0000060c       0x12 temp.elf
 .comment.431   0x0000061e       0x12 temp.elf
 .comment.436   0x00000630       0x12 temp.elf
 .comment.440   0x00000642       0x12 temp.elf
 .comment.444   0x00000654       0x12 temp.elf
 .comment.448   0x00000666       0x12 temp.elf
 .comment.452   0x00000678       0x12 temp.elf
 .comment.456   0x0000068a       0x12 temp.elf
 .comment.460   0x0000069c       0x12 temp.elf
 .comment.464   0x000006ae       0x12 temp.elf
 .comment.468   0x000006c0       0x12 temp.elf
 .comment.472   0x000006d2       0x12 temp.elf
 .comment.476   0x000006e4       0x12 temp.elf
 .comment.480   0x000006f6       0x12 temp.elf
 .comment.488   0x00000708       0x12 temp.elf
 .comment.492   0x0000071a       0x12 temp.elf
 .comment.497   0x0000072c       0x12 temp.elf
 .comment.501   0x0000073e       0x12 temp.elf
 .comment.506   0x00000750       0x12 temp.elf
 .comment.510   0x00000762       0x12 temp.elf
 .comment.514   0x00000774       0x12 temp.elf
 .comment.518   0x00000786       0x12 temp.elf
 .comment.523   0x00000798       0x12 temp.elf
 .comment.527   0x000007aa       0x12 temp.elf
 .comment.531   0x000007bc       0x12 temp.elf
 .comment.535   0x000007ce       0x12 temp.elf
 .comment.540   0x000007e0       0x12 temp.elf
 .comment.544   0x000007f2       0x12 temp.elf
 .comment.548   0x00000804       0x12 temp.elf
 .comment.564   0x00000816       0x12 temp.elf
 .comment.569   0x00000828       0x12 temp.elf
 .comment.578   0x0000083a       0x12 temp.elf
 .comment.583   0x0000084c       0x12 temp.elf
 .comment.588   0x0000085e       0x12 temp.elf
 .comment.593   0x00000870       0x12 temp.elf
 .comment.598   0x00000882       0x12 temp.elf
 .comment.603   0x00000894       0x12 temp.elf
                0x00003f28                _bss_len = (((_bss_end - _bss_beg) + 0x3) & 0xfffffffc)
OUTPUT(AN1122_ZBP_ControllerNode_JN5148.elf elf32-ba)

.stabstr        0x00000000     0x4336
 .stabstr       0x00000000     0x4336 temp.elf
